; ModuleID = 'ml55822_mp46753-loop-analysis-pass.cpp'
source_filename = "ml55822_mp46753-loop-analysis-pass.cpp"
target datalayout = "e-m:e-p270:32:32-p271:32:32-p272:64:64-i64:64-i128:128-f80:128-n8:16:32:64-S128"
target triple = "x86_64-pc-linux-gnu"

%"struct.llvm::AnalysisKey" = type { [8 x i8] }
%"struct.llvm::AnalysisSetKey" = type { [8 x i8] }
%"struct.llvm::PassPluginLibraryInfo" = type { i32, ptr, ptr, ptr }
%class.anon = type { i8 }
%"class.std::function" = type { %"class.std::_Function_base", ptr }
%"class.std::_Function_base" = type { %"union.std::_Any_data", ptr }
%"union.std::_Any_data" = type { %"union.std::_Nocopy_types" }
%"union.std::_Nocopy_types" = type { { i64, i64 } }
%class.anon.82 = type { i8 }
%"class.llvm::PassBuilder" = type { ptr, %"class.llvm::PipelineTuningOptions", [4 x i8], %"class.std::optional", ptr, %"class.llvm::SmallVector", %"class.llvm::SmallVector.2", %"class.llvm::SmallVector.2", %"class.llvm::SmallVector", %"class.llvm::SmallVector.7", %"class.llvm::SmallVector", %"class.llvm::SmallVector.12", %"class.llvm::SmallVector.12", %"class.llvm::SmallVector.12", %"class.llvm::SmallVector.12", %"class.llvm::SmallVector.12", %"class.llvm::SmallVector.12", %"class.llvm::SmallVector.17", %"class.llvm::SmallVector.22", %"class.llvm::SmallVector.27", %"class.llvm::SmallVector.32", %"class.llvm::SmallVector.37", %"class.llvm::SmallVector.42", %"class.llvm::SmallVector.47", %"class.llvm::SmallVector.52", %"class.llvm::SmallVector.57", %"class.llvm::SmallVector.62", %"class.llvm::SmallVector.67", %"class.llvm::SmallVector.72", %"class.llvm::SmallVector.77" }
%"class.llvm::PipelineTuningOptions" = type <{ i8, i8, i8, i8, i8, [3 x i8], i32, i32, i8, i8, i8, i8, i32, i8, [3 x i8] }>
%"class.std::optional" = type { %"struct.std::_Optional_base" }
%"struct.std::_Optional_base" = type { %"struct.std::_Optional_payload" }
%"struct.std::_Optional_payload" = type { %"struct.std::_Optional_payload.base", [7 x i8] }
%"struct.std::_Optional_payload.base" = type { %"struct.std::_Optional_payload_base.base" }
%"struct.std::_Optional_payload_base.base" = type <{ %"union.std::_Optional_payload_base<llvm::PGOOptions>::_Storage", i8 }>
%"union.std::_Optional_payload_base<llvm::PGOOptions>::_Storage" = type { %"struct.llvm::PGOOptions" }
%"struct.llvm::PGOOptions" = type { %"class.std::__cxx11::basic_string", %"class.std::__cxx11::basic_string", %"class.std::__cxx11::basic_string", %"class.std::__cxx11::basic_string", i32, i32, i32, i8, i8, i8, %"class.llvm::IntrusiveRefCntPtr" }
%"class.std::__cxx11::basic_string" = type { %"struct.std::__cxx11::basic_string<char>::_Alloc_hider", i64, %union.anon }
%"struct.std::__cxx11::basic_string<char>::_Alloc_hider" = type { ptr }
%union.anon = type { i64, [8 x i8] }
%"class.llvm::IntrusiveRefCntPtr" = type { ptr }
%"class.llvm::SmallVector.2" = type { %"class.llvm::SmallVectorImpl.3", %"struct.llvm::SmallVectorStorage.6" }
%"class.llvm::SmallVectorImpl.3" = type { %"class.llvm::SmallVectorTemplateBase.4" }
%"class.llvm::SmallVectorTemplateBase.4" = type { %"class.llvm::SmallVectorTemplateCommon.5" }
%"class.llvm::SmallVectorTemplateCommon.5" = type { %"class.llvm::SmallVectorBase" }
%"class.llvm::SmallVectorBase" = type { ptr, i32, i32 }
%"struct.llvm::SmallVectorStorage.6" = type { [64 x i8] }
%"class.llvm::SmallVector.7" = type { %"class.llvm::SmallVectorImpl.8", %"struct.llvm::SmallVectorStorage.11" }
%"class.llvm::SmallVectorImpl.8" = type { %"class.llvm::SmallVectorTemplateBase.9" }
%"class.llvm::SmallVectorTemplateBase.9" = type { %"class.llvm::SmallVectorTemplateCommon.10" }
%"class.llvm::SmallVectorTemplateCommon.10" = type { %"class.llvm::SmallVectorBase" }
%"struct.llvm::SmallVectorStorage.11" = type { [64 x i8] }
%"class.llvm::SmallVector" = type { %"class.llvm::SmallVectorImpl", %"struct.llvm::SmallVectorStorage" }
%"class.llvm::SmallVectorImpl" = type { %"class.llvm::SmallVectorTemplateBase" }
%"class.llvm::SmallVectorTemplateBase" = type { %"class.llvm::SmallVectorTemplateCommon" }
%"class.llvm::SmallVectorTemplateCommon" = type { %"class.llvm::SmallVectorBase" }
%"struct.llvm::SmallVectorStorage" = type { [64 x i8] }
%"class.llvm::SmallVector.12" = type { %"class.llvm::SmallVectorImpl.13", %"struct.llvm::SmallVectorStorage.16" }
%"class.llvm::SmallVectorImpl.13" = type { %"class.llvm::SmallVectorTemplateBase.14" }
%"class.llvm::SmallVectorTemplateBase.14" = type { %"class.llvm::SmallVectorTemplateCommon.15" }
%"class.llvm::SmallVectorTemplateCommon.15" = type { %"class.llvm::SmallVectorBase" }
%"struct.llvm::SmallVectorStorage.16" = type { [64 x i8] }
%"class.llvm::SmallVector.17" = type { %"class.llvm::SmallVectorImpl.18", %"struct.llvm::SmallVectorStorage.21" }
%"class.llvm::SmallVectorImpl.18" = type { %"class.llvm::SmallVectorTemplateBase.19" }
%"class.llvm::SmallVectorTemplateBase.19" = type { %"class.llvm::SmallVectorTemplateCommon.20" }
%"class.llvm::SmallVectorTemplateCommon.20" = type { %"class.llvm::SmallVectorBase" }
%"struct.llvm::SmallVectorStorage.21" = type { [64 x i8] }
%"class.llvm::SmallVector.22" = type { %"class.llvm::SmallVectorImpl.23", %"struct.llvm::SmallVectorStorage.26" }
%"class.llvm::SmallVectorImpl.23" = type { %"class.llvm::SmallVectorTemplateBase.24" }
%"class.llvm::SmallVectorTemplateBase.24" = type { %"class.llvm::SmallVectorTemplateCommon.25" }
%"class.llvm::SmallVectorTemplateCommon.25" = type { %"class.llvm::SmallVectorBase" }
%"struct.llvm::SmallVectorStorage.26" = type { [64 x i8] }
%"class.llvm::SmallVector.27" = type { %"class.llvm::SmallVectorImpl.28", %"struct.llvm::SmallVectorStorage.31" }
%"class.llvm::SmallVectorImpl.28" = type { %"class.llvm::SmallVectorTemplateBase.29" }
%"class.llvm::SmallVectorTemplateBase.29" = type { %"class.llvm::SmallVectorTemplateCommon.30" }
%"class.llvm::SmallVectorTemplateCommon.30" = type { %"class.llvm::SmallVectorBase" }
%"struct.llvm::SmallVectorStorage.31" = type { [64 x i8] }
%"class.llvm::SmallVector.32" = type { %"class.llvm::SmallVectorImpl.33", %"struct.llvm::SmallVectorStorage.36" }
%"class.llvm::SmallVectorImpl.33" = type { %"class.llvm::SmallVectorTemplateBase.34" }
%"class.llvm::SmallVectorTemplateBase.34" = type { %"class.llvm::SmallVectorTemplateCommon.35" }
%"class.llvm::SmallVectorTemplateCommon.35" = type { %"class.llvm::SmallVectorBase" }
%"struct.llvm::SmallVectorStorage.36" = type { [64 x i8] }
%"class.llvm::SmallVector.37" = type { %"class.llvm::SmallVectorImpl.38", %"struct.llvm::SmallVectorStorage.41" }
%"class.llvm::SmallVectorImpl.38" = type { %"class.llvm::SmallVectorTemplateBase.39" }
%"class.llvm::SmallVectorTemplateBase.39" = type { %"class.llvm::SmallVectorTemplateCommon.40" }
%"class.llvm::SmallVectorTemplateCommon.40" = type { %"class.llvm::SmallVectorBase" }
%"struct.llvm::SmallVectorStorage.41" = type { [64 x i8] }
%"class.llvm::SmallVector.42" = type { %"class.llvm::SmallVectorImpl.43", %"struct.llvm::SmallVectorStorage.46" }
%"class.llvm::SmallVectorImpl.43" = type { %"class.llvm::SmallVectorTemplateBase.44" }
%"class.llvm::SmallVectorTemplateBase.44" = type { %"class.llvm::SmallVectorTemplateCommon.45" }
%"class.llvm::SmallVectorTemplateCommon.45" = type { %"class.llvm::SmallVectorBase" }
%"struct.llvm::SmallVectorStorage.46" = type { [64 x i8] }
%"class.llvm::SmallVector.47" = type { %"class.llvm::SmallVectorImpl.48", %"struct.llvm::SmallVectorStorage.51" }
%"class.llvm::SmallVectorImpl.48" = type { %"class.llvm::SmallVectorTemplateBase.49" }
%"class.llvm::SmallVectorTemplateBase.49" = type { %"class.llvm::SmallVectorTemplateCommon.50" }
%"class.llvm::SmallVectorTemplateCommon.50" = type { %"class.llvm::SmallVectorBase" }
%"struct.llvm::SmallVectorStorage.51" = type { [64 x i8] }
%"class.llvm::SmallVector.52" = type { %"class.llvm::SmallVectorImpl.53", %"struct.llvm::SmallVectorStorage.56" }
%"class.llvm::SmallVectorImpl.53" = type { %"class.llvm::SmallVectorTemplateBase.54" }
%"class.llvm::SmallVectorTemplateBase.54" = type { %"class.llvm::SmallVectorTemplateCommon.55" }
%"class.llvm::SmallVectorTemplateCommon.55" = type { %"class.llvm::SmallVectorBase" }
%"struct.llvm::SmallVectorStorage.56" = type { [64 x i8] }
%"class.llvm::SmallVector.57" = type { %"class.llvm::SmallVectorImpl.58", %"struct.llvm::SmallVectorStorage.61" }
%"class.llvm::SmallVectorImpl.58" = type { %"class.llvm::SmallVectorTemplateBase.59" }
%"class.llvm::SmallVectorTemplateBase.59" = type { %"class.llvm::SmallVectorTemplateCommon.60" }
%"class.llvm::SmallVectorTemplateCommon.60" = type { %"class.llvm::SmallVectorBase" }
%"struct.llvm::SmallVectorStorage.61" = type { [64 x i8] }
%"class.llvm::SmallVector.62" = type { %"class.llvm::SmallVectorImpl.63", %"struct.llvm::SmallVectorStorage.66" }
%"class.llvm::SmallVectorImpl.63" = type { %"class.llvm::SmallVectorTemplateBase.64" }
%"class.llvm::SmallVectorTemplateBase.64" = type { %"class.llvm::SmallVectorTemplateCommon.65" }
%"class.llvm::SmallVectorTemplateCommon.65" = type { %"class.llvm::SmallVectorBase" }
%"struct.llvm::SmallVectorStorage.66" = type { [64 x i8] }
%"class.llvm::SmallVector.67" = type { %"class.llvm::SmallVectorImpl.68", %"struct.llvm::SmallVectorStorage.71" }
%"class.llvm::SmallVectorImpl.68" = type { %"class.llvm::SmallVectorTemplateBase.69" }
%"class.llvm::SmallVectorTemplateBase.69" = type { %"class.llvm::SmallVectorTemplateCommon.70" }
%"class.llvm::SmallVectorTemplateCommon.70" = type { %"class.llvm::SmallVectorBase" }
%"struct.llvm::SmallVectorStorage.71" = type { [64 x i8] }
%"class.llvm::SmallVector.72" = type { %"class.llvm::SmallVectorImpl.73", %"struct.llvm::SmallVectorStorage.76" }
%"class.llvm::SmallVectorImpl.73" = type { %"class.llvm::SmallVectorTemplateBase.74" }
%"class.llvm::SmallVectorTemplateBase.74" = type { %"class.llvm::SmallVectorTemplateCommon.75" }
%"class.llvm::SmallVectorTemplateCommon.75" = type { %"class.llvm::SmallVectorBase" }
%"struct.llvm::SmallVectorStorage.76" = type { [64 x i8] }
%"class.llvm::SmallVector.77" = type { %"class.llvm::SmallVectorImpl.78", %"struct.llvm::SmallVectorStorage.81" }
%"class.llvm::SmallVectorImpl.78" = type { %"class.llvm::SmallVectorTemplateBase.79" }
%"class.llvm::SmallVectorTemplateBase.79" = type { %"class.llvm::SmallVectorTemplateCommon.80" }
%"class.llvm::SmallVectorTemplateCommon.80" = type { %"class.llvm::SmallVectorBase" }
%"struct.llvm::SmallVectorStorage.81" = type { [64 x i8] }
%"struct.std::less" = type { i8 }
%"struct.std::less.84" = type { i8 }
%"class.std::move_iterator" = type { ptr }
%"struct.std::integral_constant" = type { i8 }
%"struct.std::__invoke_other" = type { i8 }
%"class.llvm::StringRef" = type { ptr, i64 }
%"class.llvm::ArrayRef" = type { ptr, i64 }
%"class.llvm::LoopSimplifyPass" = type { i8 }
%"struct.(anonymous namespace)::LoopPass" = type { i8 }
%"class.std::unique_ptr" = type { %"struct.std::__uniq_ptr_data" }
%"struct.std::__uniq_ptr_data" = type { %"class.std::__uniq_ptr_impl" }
%"class.std::__uniq_ptr_impl" = type { %"class.std::tuple" }
%"class.std::tuple" = type { %"struct.std::_Tuple_impl" }
%"struct.std::_Tuple_impl" = type { %"struct.std::_Head_base.91" }
%"struct.std::_Head_base.91" = type { ptr }
%"class.llvm::PassManager" = type { %"class.std::vector" }
%"class.std::vector" = type { %"struct.std::_Vector_base" }
%"struct.std::_Vector_base" = type { %"struct.std::_Vector_base<std::unique_ptr<llvm::detail::PassConcept<llvm::Function, llvm::AnalysisManager<Function>>>, std::allocator<std::unique_ptr<llvm::detail::PassConcept<llvm::Function, llvm::AnalysisManager<Function>>>>>::_Vector_impl" }
%"struct.std::_Vector_base<std::unique_ptr<llvm::detail::PassConcept<llvm::Function, llvm::AnalysisManager<Function>>>, std::allocator<std::unique_ptr<llvm::detail::PassConcept<llvm::Function, llvm::AnalysisManager<Function>>>>>::_Vector_impl" = type { %"struct.std::_Vector_base<std::unique_ptr<llvm::detail::PassConcept<llvm::Function, llvm::AnalysisManager<Function>>>, std::allocator<std::unique_ptr<llvm::detail::PassConcept<llvm::Function, llvm::AnalysisManager<Function>>>>>::_Vector_impl_data" }
%"struct.std::_Vector_base<std::unique_ptr<llvm::detail::PassConcept<llvm::Function, llvm::AnalysisManager<Function>>>, std::allocator<std::unique_ptr<llvm::detail::PassConcept<llvm::Function, llvm::AnalysisManager<Function>>>>>::_Vector_impl_data" = type { ptr, ptr, ptr }
%"class.__gnu_cxx::__normal_iterator" = type { ptr }
%"class.llvm::PreservedAnalyses" = type { %"class.llvm::SmallPtrSet", %"class.llvm::SmallPtrSet.92" }
%"class.llvm::SmallPtrSet" = type { %"class.llvm::SmallPtrSetImpl.base", [2 x ptr] }
%"class.llvm::SmallPtrSetImpl.base" = type { %"class.llvm::SmallPtrSetImplBase.base" }
%"class.llvm::SmallPtrSetImplBase.base" = type <{ ptr, ptr, i32, i32, i32 }>
%"class.llvm::SmallPtrSet.92" = type { %"class.llvm::SmallPtrSetImpl.base.94", [2 x ptr] }
%"class.llvm::SmallPtrSetImpl.base.94" = type { %"class.llvm::SmallPtrSetImplBase.base" }
%"class.llvm::function_ref" = type { ptr, i64 }
%"class.llvm::raw_ostream" = type { ptr, i32, ptr, ptr, ptr, i8, i32 }
%"class.__gnu_cxx::__normal_iterator.132" = type { ptr }
%"class.llvm::AnalysisManager" = type { %"class.llvm::DenseMap", %"class.llvm::DenseMap.105", %"class.llvm::DenseMap.108" }
%"class.llvm::DenseMap" = type <{ ptr, i32, i32, i32, [4 x i8] }>
%"class.llvm::DenseMap.105" = type <{ ptr, i32, i32, i32, [4 x i8] }>
%"class.llvm::DenseMap.108" = type <{ ptr, i32, i32, i32, [4 x i8] }>
%"struct.llvm::detail::AnalysisResultModel" = type { %"struct.llvm::detail::AnalysisResultConcept", %"class.llvm::LoopInfo" }
%"struct.llvm::detail::AnalysisResultConcept" = type { ptr }
%"class.llvm::LoopInfo" = type { %"class.llvm::LoopInfoBase" }
%"class.llvm::LoopInfoBase" = type { %"class.llvm::DenseMap.113", %"class.std::vector.116", %"class.llvm::BumpPtrAllocatorImpl" }
%"class.llvm::DenseMap.113" = type <{ ptr, i32, i32, i32, [4 x i8] }>
%"class.std::vector.116" = type { %"struct.std::_Vector_base.117" }
%"struct.std::_Vector_base.117" = type { %"struct.std::_Vector_base<llvm::Loop *, std::allocator<llvm::Loop *>>::_Vector_impl" }
%"struct.std::_Vector_base<llvm::Loop *, std::allocator<llvm::Loop *>>::_Vector_impl" = type { %"struct.std::_Vector_base<llvm::Loop *, std::allocator<llvm::Loop *>>::_Vector_impl_data" }
%"struct.std::_Vector_base<llvm::Loop *, std::allocator<llvm::Loop *>>::_Vector_impl_data" = type { ptr, ptr, ptr }
%"class.llvm::BumpPtrAllocatorImpl" = type { ptr, ptr, %"class.llvm::SmallVector.122", %"class.llvm::SmallVector.127", i64, i64 }
%"class.llvm::SmallVector.122" = type { %"class.llvm::SmallVectorImpl.123", %"struct.llvm::SmallVectorStorage.126" }
%"class.llvm::SmallVectorImpl.123" = type { %"class.llvm::SmallVectorTemplateBase.124" }
%"class.llvm::SmallVectorTemplateBase.124" = type { %"class.llvm::SmallVectorTemplateCommon.125" }
%"class.llvm::SmallVectorTemplateCommon.125" = type { %"class.llvm::SmallVectorBase" }
%"struct.llvm::SmallVectorStorage.126" = type { [32 x i8] }
%"class.llvm::SmallVector.127" = type { %"class.llvm::SmallVectorImpl.128" }
%"class.llvm::SmallVectorImpl.128" = type { %"class.llvm::SmallVectorTemplateBase.129" }
%"class.llvm::SmallVectorTemplateBase.129" = type { %"class.llvm::SmallVectorTemplateCommon.130" }
%"class.llvm::SmallVectorTemplateCommon.130" = type { %"class.llvm::SmallVectorBase" }
%"class.llvm::iterator_range" = type { ptr, ptr }
%"class.llvm::ilist_iterator_w_bits" = type <{ ptr, i8, i8, [6 x i8] }>
%"class.std::allocator" = type { i8 }
%"struct.std::pair.171" = type <{ %"class.llvm::SmallPtrSetIterator", i8, [7 x i8] }>
%"class.llvm::SmallPtrSetIterator" = type { %"class.llvm::SmallPtrSetIteratorImpl" }
%"class.llvm::SmallPtrSetIteratorImpl" = type { ptr, ptr }
%"struct.llvm::detail::DenseMapPair" = type { %"struct.std::pair" }
%"struct.std::pair" = type { ptr, %"class.std::unique_ptr.133" }
%"class.std::unique_ptr.133" = type { %"struct.std::__uniq_ptr_data.134" }
%"struct.std::__uniq_ptr_data.134" = type { %"class.std::__uniq_ptr_impl.135" }
%"class.std::__uniq_ptr_impl.135" = type { %"class.std::tuple.136" }
%"class.std::tuple.136" = type { %"struct.std::_Tuple_impl.137" }
%"struct.std::_Tuple_impl.137" = type { %"struct.std::_Head_base.140" }
%"struct.std::_Head_base.140" = type { ptr }
%"class.llvm::BasicBlock" = type { %"class.llvm::Value", %"class.llvm::ilist_node_with_parent", i8, %"class.llvm::SymbolTableList.150", ptr }
%"class.llvm::Value" = type { i8, i8, i16, i32, ptr, ptr }
%"class.llvm::ilist_node_with_parent" = type { %"class.llvm::ilist_node.149" }
%"class.llvm::ilist_node.149" = type { %"class.llvm::ilist_node_impl.95" }
%"class.llvm::ilist_node_impl.95" = type { %"class.llvm::ilist_node_base" }
%"class.llvm::ilist_node_base" = type { %"class.llvm::ilist_detail::node_base_prevnext" }
%"class.llvm::ilist_detail::node_base_prevnext" = type { ptr, ptr }
%"class.llvm::SymbolTableList.150" = type { %"class.llvm::iplist_impl.151" }
%"class.llvm::iplist_impl.151" = type { %"class.llvm::simple_ilist.154" }
%"class.llvm::simple_ilist.154" = type { %"class.llvm::ilist_sentinel.157" }
%"class.llvm::ilist_sentinel.157" = type { %"class.llvm::ilist_node_impl.158" }
%"class.llvm::ilist_node_impl.158" = type { %"class.llvm::ilist_node_base.159" }
%"class.llvm::ilist_node_base.159" = type { %"class.llvm::ilist_detail::node_base_prevnext.160", %"class.llvm::ilist_detail::node_base_parent.161" }
%"class.llvm::ilist_detail::node_base_prevnext.160" = type { ptr, ptr }
%"class.llvm::ilist_detail::node_base_parent.161" = type { ptr }
%"struct.std::pair.173" = type <{ ptr, i8, [7 x i8] }>
%"class.llvm::SmallPtrSetImplBase" = type <{ ptr, ptr, i32, i32, i32, [4 x i8] }>
%"struct.std::pair.176" = type <{ ptr, i8, [7 x i8] }>

$_ZN4llvm11PassBuilder31registerPipelineParsingCallbackERKSt8functionIFbNS_9StringRefERNS_11PassManagerINS_8FunctionENS_15AnalysisManagerIS4_JEEEJEEENS_8ArrayRefINS0_15PipelineElementEEEEE = comdat any

$_ZNSt8functionIFbN4llvm9StringRefERNS0_11PassManagerINS0_8FunctionENS0_15AnalysisManagerIS3_JEEEJEEENS0_8ArrayRefINS0_11PassBuilder15PipelineElementEEEEED2Ev = comdat any

$_ZN4llvm23SmallVectorTemplateBaseISt8functionIFbNS_9StringRefERNS_11PassManagerINS_8FunctionENS_15AnalysisManagerIS4_JEEEJEEENS_8ArrayRefINS_11PassBuilder15PipelineElementEEEEELb0EE9push_backERKSE_ = comdat any

$_ZN4llvm23SmallVectorTemplateBaseISt8functionIFbNS_9StringRefERNS_11PassManagerINS_8FunctionENS_15AnalysisManagerIS4_JEEEJEEENS_8ArrayRefINS_11PassBuilder15PipelineElementEEEEELb0EE28reserveForParamAndGetAddressERKSE_m = comdat any

$_ZN4llvm25SmallVectorTemplateCommonISt8functionIFbNS_9StringRefERNS_11PassManagerINS_8FunctionENS_15AnalysisManagerIS4_JEEEJEEENS_8ArrayRefINS_11PassBuilder15PipelineElementEEEEEvE3endEv = comdat any

$_ZNSt8functionIFbN4llvm9StringRefERNS0_11PassManagerINS0_8FunctionENS0_15AnalysisManagerIS3_JEEEJEEENS0_8ArrayRefINS0_11PassBuilder15PipelineElementEEEEEC2ERKSD_ = comdat any

$_ZN4llvm25SmallVectorTemplateCommonISt8functionIFbNS_9StringRefERNS_11PassManagerINS_8FunctionENS_15AnalysisManagerIS4_JEEEJEEENS_8ArrayRefINS_11PassBuilder15PipelineElementEEEEEvE32reserveForParamAndGetAddressImplINS_23SmallVectorTemplateBaseISE_Lb0EEEEEPKSE_PT_RSJ_m = comdat any

$_ZNK4llvm25SmallVectorTemplateCommonISt8functionIFbNS_9StringRefERNS_11PassManagerINS_8FunctionENS_15AnalysisManagerIS4_JEEEJEEENS_8ArrayRefINS_11PassBuilder15PipelineElementEEEEEvE20isReferenceToStorageEPKv = comdat any

$_ZN4llvm25SmallVectorTemplateCommonISt8functionIFbNS_9StringRefERNS_11PassManagerINS_8FunctionENS_15AnalysisManagerIS4_JEEEJEEENS_8ArrayRefINS_11PassBuilder15PipelineElementEEEEEvE5beginEv = comdat any

$_ZN4llvm23SmallVectorTemplateBaseISt8functionIFbNS_9StringRefERNS_11PassManagerINS_8FunctionENS_15AnalysisManagerIS4_JEEEJEEENS_8ArrayRefINS_11PassBuilder15PipelineElementEEEEELb0EE4growEm = comdat any

$_ZNK4llvm25SmallVectorTemplateCommonISt8functionIFbNS_9StringRefERNS_11PassManagerINS_8FunctionENS_15AnalysisManagerIS4_JEEEJEEENS_8ArrayRefINS_11PassBuilder15PipelineElementEEEEEvE18isReferenceToRangeEPKvSH_SH_ = comdat any

$_ZNK4llvm25SmallVectorTemplateCommonISt8functionIFbNS_9StringRefERNS_11PassManagerINS_8FunctionENS_15AnalysisManagerIS4_JEEEJEEENS_8ArrayRefINS_11PassBuilder15PipelineElementEEEEEvE5beginEv = comdat any

$_ZNK4llvm25SmallVectorTemplateCommonISt8functionIFbNS_9StringRefERNS_11PassManagerINS_8FunctionENS_15AnalysisManagerIS4_JEEEJEEENS_8ArrayRefINS_11PassBuilder15PipelineElementEEEEEvE3endEv = comdat any

$_ZNKSt4lessIvEclIKvS2_EEbPT_PT0_ = comdat any

$_ZNKSt4lessIPKvEclES1_S1_ = comdat any

$_ZN4llvm23SmallVectorTemplateBaseISt8functionIFbNS_9StringRefERNS_11PassManagerINS_8FunctionENS_15AnalysisManagerIS4_JEEEJEEENS_8ArrayRefINS_11PassBuilder15PipelineElementEEEEELb0EE13mallocForGrowEmRm = comdat any

$_ZN4llvm23SmallVectorTemplateBaseISt8functionIFbNS_9StringRefERNS_11PassManagerINS_8FunctionENS_15AnalysisManagerIS4_JEEEJEEENS_8ArrayRefINS_11PassBuilder15PipelineElementEEEEELb0EE19moveElementsForGrowEPSE_ = comdat any

$_ZN4llvm23SmallVectorTemplateBaseISt8functionIFbNS_9StringRefERNS_11PassManagerINS_8FunctionENS_15AnalysisManagerIS4_JEEEJEEENS_8ArrayRefINS_11PassBuilder15PipelineElementEEEEELb0EE21takeAllocationForGrowEPSE_m = comdat any

$_ZNK4llvm25SmallVectorTemplateCommonISt8functionIFbNS_9StringRefERNS_11PassManagerINS_8FunctionENS_15AnalysisManagerIS4_JEEEJEEENS_8ArrayRefINS_11PassBuilder15PipelineElementEEEEEvE10getFirstElEv = comdat any

$_ZN4llvm23SmallVectorTemplateBaseISt8functionIFbNS_9StringRefERNS_11PassManagerINS_8FunctionENS_15AnalysisManagerIS4_JEEEJEEENS_8ArrayRefINS_11PassBuilder15PipelineElementEEEEELb0EE18uninitialized_moveIPSE_SH_EEvT_SI_T0_ = comdat any

$_ZN4llvm23SmallVectorTemplateBaseISt8functionIFbNS_9StringRefERNS_11PassManagerINS_8FunctionENS_15AnalysisManagerIS4_JEEEJEEENS_8ArrayRefINS_11PassBuilder15PipelineElementEEEEELb0EE13destroy_rangeEPSE_SG_ = comdat any

$_ZSt18uninitialized_moveIPSt8functionIFbN4llvm9StringRefERNS1_11PassManagerINS1_8FunctionENS1_15AnalysisManagerIS4_JEEEJEEENS1_8ArrayRefINS1_11PassBuilder15PipelineElementEEEEESF_ET0_T_SH_SG_ = comdat any

$_ZSt18uninitialized_copyISt13move_iteratorIPSt8functionIFbN4llvm9StringRefERNS2_11PassManagerINS2_8FunctionENS2_15AnalysisManagerIS5_JEEEJEEENS2_8ArrayRefINS2_11PassBuilder15PipelineElementEEEEEESG_ET0_T_SJ_SI_ = comdat any

$_ZSt18make_move_iteratorIPSt8functionIFbN4llvm9StringRefERNS1_11PassManagerINS1_8FunctionENS1_15AnalysisManagerIS4_JEEEJEEENS1_8ArrayRefINS1_11PassBuilder15PipelineElementEEEEEESt13move_iteratorIT_ESH_ = comdat any

$_ZNSt20__uninitialized_copyILb0EE13__uninit_copyISt13move_iteratorIPSt8functionIFbN4llvm9StringRefERNS4_11PassManagerINS4_8FunctionENS4_15AnalysisManagerIS7_JEEEJEEENS4_8ArrayRefINS4_11PassBuilder15PipelineElementEEEEEESI_EET0_T_SL_SK_ = comdat any

$_ZSt16__do_uninit_copyISt13move_iteratorIPSt8functionIFbN4llvm9StringRefERNS2_11PassManagerINS2_8FunctionENS2_15AnalysisManagerIS5_JEEEJEEENS2_8ArrayRefINS2_11PassBuilder15PipelineElementEEEEEESG_ET0_T_SJ_SI_ = comdat any

$_ZStneIPSt8functionIFbN4llvm9StringRefERNS1_11PassManagerINS1_8FunctionENS1_15AnalysisManagerIS4_JEEEJEEENS1_8ArrayRefINS1_11PassBuilder15PipelineElementEEEEEEbRKSt13move_iteratorIT_ESK_ = comdat any

$_ZSt10_ConstructISt8functionIFbN4llvm9StringRefERNS1_11PassManagerINS1_8FunctionENS1_15AnalysisManagerIS4_JEEEJEEENS1_8ArrayRefINS1_11PassBuilder15PipelineElementEEEEEJSE_EEvPT_DpOT0_ = comdat any

$_ZNKSt13move_iteratorIPSt8functionIFbN4llvm9StringRefERNS1_11PassManagerINS1_8FunctionENS1_15AnalysisManagerIS4_JEEEJEEENS1_8ArrayRefINS1_11PassBuilder15PipelineElementEEEEEEdeEv = comdat any

$_ZNSt13move_iteratorIPSt8functionIFbN4llvm9StringRefERNS1_11PassManagerINS1_8FunctionENS1_15AnalysisManagerIS4_JEEEJEEENS1_8ArrayRefINS1_11PassBuilder15PipelineElementEEEEEEppEv = comdat any

$_ZSteqIPSt8functionIFbN4llvm9StringRefERNS1_11PassManagerINS1_8FunctionENS1_15AnalysisManagerIS4_JEEEJEEENS1_8ArrayRefINS1_11PassBuilder15PipelineElementEEEEEEbRKSt13move_iteratorIT_ESK_ = comdat any

$_ZNKSt13move_iteratorIPSt8functionIFbN4llvm9StringRefERNS1_11PassManagerINS1_8FunctionENS1_15AnalysisManagerIS4_JEEEJEEENS1_8ArrayRefINS1_11PassBuilder15PipelineElementEEEEEE4baseEv = comdat any

$_ZNSt8functionIFbN4llvm9StringRefERNS0_11PassManagerINS0_8FunctionENS0_15AnalysisManagerIS3_JEEEJEEENS0_8ArrayRefINS0_11PassBuilder15PipelineElementEEEEEC2EOSD_ = comdat any

$_ZNSt14_Function_baseC2Ev = comdat any

$_ZNKSt8functionIFbN4llvm9StringRefERNS0_11PassManagerINS0_8FunctionENS0_15AnalysisManagerIS3_JEEEJEEENS0_8ArrayRefINS0_11PassBuilder15PipelineElementEEEEEcvbEv = comdat any

$_ZNKSt14_Function_base8_M_emptyEv = comdat any

$_ZNSt13move_iteratorIPSt8functionIFbN4llvm9StringRefERNS1_11PassManagerINS1_8FunctionENS1_15AnalysisManagerIS4_JEEEJEEENS1_8ArrayRefINS1_11PassBuilder15PipelineElementEEEEEEC2ESF_ = comdat any

$_ZNK4llvm25SmallVectorTemplateCommonISt8functionIFbNS_9StringRefERNS_11PassManagerINS_8FunctionENS_15AnalysisManagerIS4_JEEEJEEENS_8ArrayRefINS_11PassBuilder15PipelineElementEEEEEvE7isSmallEv = comdat any

$_ZNSt9_Any_data9_M_accessEv = comdat any

$_ZN4llvmeqENS_9StringRefES0_ = comdat any

$_ZN4llvm9StringRefC2EPKc = comdat any

$_ZN4llvm11PassManagerINS_8FunctionENS_15AnalysisManagerIS1_JEEEJEE7addPassINS_16LoopSimplifyPassEEENSt9enable_ifIXntsr3stdE9is_same_vIT_S4_EEvE4typeEOS8_ = comdat any

$_ZNK4llvm9StringRef4sizeEv = comdat any

$_ZNK4llvm9StringRef5emptyEv = comdat any

$_ZNK4llvm9StringRef4dataEv = comdat any

$_ZNSt11char_traitsIcE6lengthEPKc = comdat any

$_ZNSt6vectorISt10unique_ptrIN4llvm6detail11PassConceptINS1_8FunctionENS1_15AnalysisManagerIS4_JEEEJEEESt14default_deleteIS7_EESaISA_EE9push_backEOSA_ = comdat any

$_ZN4llvm6detail9PassModelINS_8FunctionENS_16LoopSimplifyPassENS_15AnalysisManagerIS2_JEEEJEEC2ES3_ = comdat any

$_ZNSt10unique_ptrIN4llvm6detail11PassConceptINS0_8FunctionENS0_15AnalysisManagerIS3_JEEEJEEESt14default_deleteIS6_EEC2IS8_vEEPS6_ = comdat any

$_ZNSt10unique_ptrIN4llvm6detail11PassConceptINS0_8FunctionENS0_15AnalysisManagerIS3_JEEEJEEESt14default_deleteIS6_EED2Ev = comdat any

$_ZNSt6vectorISt10unique_ptrIN4llvm6detail11PassConceptINS1_8FunctionENS1_15AnalysisManagerIS4_JEEEJEEESt14default_deleteIS7_EESaISA_EE12emplace_backIJSA_EEERSA_DpOT_ = comdat any

$_ZNSt6vectorISt10unique_ptrIN4llvm6detail11PassConceptINS1_8FunctionENS1_15AnalysisManagerIS4_JEEEJEEESt14default_deleteIS7_EESaISA_EE17_M_realloc_insertIJSA_EEEvN9__gnu_cxx17__normal_iteratorIPSA_SC_EEDpOT_ = comdat any

$_ZNSt6vectorISt10unique_ptrIN4llvm6detail11PassConceptINS1_8FunctionENS1_15AnalysisManagerIS4_JEEEJEEESt14default_deleteIS7_EESaISA_EE3endEv = comdat any

$_ZNSt6vectorISt10unique_ptrIN4llvm6detail11PassConceptINS1_8FunctionENS1_15AnalysisManagerIS4_JEEEJEEESt14default_deleteIS7_EESaISA_EE4backEv = comdat any

$_ZNSt10unique_ptrIN4llvm6detail11PassConceptINS0_8FunctionENS0_15AnalysisManagerIS3_JEEEJEEESt14default_deleteIS6_EEC2EOS9_ = comdat any

$_ZNSt15__uniq_ptr_dataIN4llvm6detail11PassConceptINS0_8FunctionENS0_15AnalysisManagerIS3_JEEEJEEESt14default_deleteIS6_ELb1ELb1EEC2EOS9_ = comdat any

$_ZNSt15__uniq_ptr_implIN4llvm6detail11PassConceptINS0_8FunctionENS0_15AnalysisManagerIS3_JEEEJEEESt14default_deleteIS6_EEC2EOS9_ = comdat any

$_ZNSt5tupleIJPN4llvm6detail11PassConceptINS0_8FunctionENS0_15AnalysisManagerIS3_JEEEJEEESt14default_deleteIS6_EEEC2EOSA_ = comdat any

$_ZNSt15__uniq_ptr_implIN4llvm6detail11PassConceptINS0_8FunctionENS0_15AnalysisManagerIS3_JEEEJEEESt14default_deleteIS6_EE6_M_ptrEv = comdat any

$_ZNSt11_Tuple_implILm0EJPN4llvm6detail11PassConceptINS0_8FunctionENS0_15AnalysisManagerIS3_JEEEJEEESt14default_deleteIS6_EEEC2EOSA_ = comdat any

$_ZNSt11_Tuple_implILm1EJSt14default_deleteIN4llvm6detail11PassConceptINS1_8FunctionENS1_15AnalysisManagerIS4_JEEEJEEEEEEC2EOS9_ = comdat any

$_ZSt3getILm0EJPN4llvm6detail11PassConceptINS0_8FunctionENS0_15AnalysisManagerIS3_JEEEJEEESt14default_deleteIS6_EEERNSt13tuple_elementIXT_ESt5tupleIJDpT0_EEE4typeERSE_ = comdat any

$_ZSt12__get_helperILm0EPN4llvm6detail11PassConceptINS0_8FunctionENS0_15AnalysisManagerIS3_JEEEJEEEJSt14default_deleteIS6_EEERT0_RSt11_Tuple_implIXT_EJSA_DpT1_EE = comdat any

$_ZNSt11_Tuple_implILm0EJPN4llvm6detail11PassConceptINS0_8FunctionENS0_15AnalysisManagerIS3_JEEEJEEESt14default_deleteIS6_EEE7_M_headERSA_ = comdat any

$_ZNSt10_Head_baseILm0EPN4llvm6detail11PassConceptINS0_8FunctionENS0_15AnalysisManagerIS3_JEEEJEEELb0EE7_M_headERS8_ = comdat any

$_ZNKSt6vectorISt10unique_ptrIN4llvm6detail11PassConceptINS1_8FunctionENS1_15AnalysisManagerIS4_JEEEJEEESt14default_deleteIS7_EESaISA_EE12_M_check_lenEmPKc = comdat any

$_ZN9__gnu_cxxmiIPSt10unique_ptrIN4llvm6detail11PassConceptINS2_8FunctionENS2_15AnalysisManagerIS5_JEEEJEEESt14default_deleteIS8_EESt6vectorISB_SaISB_EEEENS_17__normal_iteratorIT_T0_E15difference_typeERKSJ_SM_ = comdat any

$_ZNSt6vectorISt10unique_ptrIN4llvm6detail11PassConceptINS1_8FunctionENS1_15AnalysisManagerIS4_JEEEJEEESt14default_deleteIS7_EESaISA_EE5beginEv = comdat any

$_ZNSt12_Vector_baseISt10unique_ptrIN4llvm6detail11PassConceptINS1_8FunctionENS1_15AnalysisManagerIS4_JEEEJEEESt14default_deleteIS7_EESaISA_EE11_M_allocateEm = comdat any

$_ZNSt6vectorISt10unique_ptrIN4llvm6detail11PassConceptINS1_8FunctionENS1_15AnalysisManagerIS4_JEEEJEEESt14default_deleteIS7_EESaISA_EE11_S_relocateEPSA_SD_SD_RSB_ = comdat any

$_ZNK9__gnu_cxx17__normal_iteratorIPSt10unique_ptrIN4llvm6detail11PassConceptINS2_8FunctionENS2_15AnalysisManagerIS5_JEEEJEEESt14default_deleteIS8_EESt6vectorISB_SaISB_EEE4baseEv = comdat any

$_ZNSt12_Vector_baseISt10unique_ptrIN4llvm6detail11PassConceptINS1_8FunctionENS1_15AnalysisManagerIS4_JEEEJEEESt14default_deleteIS7_EESaISA_EE19_M_get_Tp_allocatorEv = comdat any

$_ZNSt12_Vector_baseISt10unique_ptrIN4llvm6detail11PassConceptINS1_8FunctionENS1_15AnalysisManagerIS4_JEEEJEEESt14default_deleteIS7_EESaISA_EE13_M_deallocateEPSA_m = comdat any

$_ZNKSt6vectorISt10unique_ptrIN4llvm6detail11PassConceptINS1_8FunctionENS1_15AnalysisManagerIS4_JEEEJEEESt14default_deleteIS7_EESaISA_EE8max_sizeEv = comdat any

$_ZNKSt6vectorISt10unique_ptrIN4llvm6detail11PassConceptINS1_8FunctionENS1_15AnalysisManagerIS4_JEEEJEEESt14default_deleteIS7_EESaISA_EE4sizeEv = comdat any

$_ZSt3maxImERKT_S2_S2_ = comdat any

$_ZNSt6vectorISt10unique_ptrIN4llvm6detail11PassConceptINS1_8FunctionENS1_15AnalysisManagerIS4_JEEEJEEESt14default_deleteIS7_EESaISA_EE11_S_max_sizeERKSB_ = comdat any

$_ZNKSt12_Vector_baseISt10unique_ptrIN4llvm6detail11PassConceptINS1_8FunctionENS1_15AnalysisManagerIS4_JEEEJEEESt14default_deleteIS7_EESaISA_EE19_M_get_Tp_allocatorEv = comdat any

$_ZSt3minImERKT_S2_S2_ = comdat any

$_ZN9__gnu_cxx17__normal_iteratorIPSt10unique_ptrIN4llvm6detail11PassConceptINS2_8FunctionENS2_15AnalysisManagerIS5_JEEEJEEESt14default_deleteIS8_EESt6vectorISB_SaISB_EEEC2ERKSC_ = comdat any

$_ZNSt15__new_allocatorISt10unique_ptrIN4llvm6detail11PassConceptINS1_8FunctionENS1_15AnalysisManagerIS4_JEEEJEEESt14default_deleteIS7_EEE8allocateEmPKv = comdat any

$_ZSt12__relocate_aIPSt10unique_ptrIN4llvm6detail11PassConceptINS1_8FunctionENS1_15AnalysisManagerIS4_JEEEJEEESt14default_deleteIS7_EESB_SaISA_EET0_T_SE_SD_RT1_ = comdat any

$_ZSt14__relocate_a_1IPSt10unique_ptrIN4llvm6detail11PassConceptINS1_8FunctionENS1_15AnalysisManagerIS4_JEEEJEEESt14default_deleteIS7_EESB_SaISA_EET0_T_SE_SD_RT1_ = comdat any

$_ZSt12__niter_baseIPSt10unique_ptrIN4llvm6detail11PassConceptINS1_8FunctionENS1_15AnalysisManagerIS4_JEEEJEEESt14default_deleteIS7_EEET_SC_ = comdat any

$_ZSt19__relocate_object_aISt10unique_ptrIN4llvm6detail11PassConceptINS1_8FunctionENS1_15AnalysisManagerIS4_JEEEJEEESt14default_deleteIS7_EESA_SaISA_EEvPT_PT0_RT1_ = comdat any

$_ZNSt15__new_allocatorISt10unique_ptrIN4llvm6detail11PassConceptINS1_8FunctionENS1_15AnalysisManagerIS4_JEEEJEEESt14default_deleteIS7_EEE10deallocateEPSA_m = comdat any

$_ZNK9__gnu_cxx17__normal_iteratorIPSt10unique_ptrIN4llvm6detail11PassConceptINS2_8FunctionENS2_15AnalysisManagerIS5_JEEEJEEESt14default_deleteIS8_EESt6vectorISB_SaISB_EEEmiEl = comdat any

$_ZNK9__gnu_cxx17__normal_iteratorIPSt10unique_ptrIN4llvm6detail11PassConceptINS2_8FunctionENS2_15AnalysisManagerIS5_JEEEJEEESt14default_deleteIS8_EESt6vectorISB_SaISB_EEEdeEv = comdat any

$_ZN4llvm6detail11PassConceptINS_8FunctionENS_15AnalysisManagerIS2_JEEEJEEC2Ev = comdat any

$_ZN4llvm6detail9PassModelINS_8FunctionENS_16LoopSimplifyPassENS_15AnalysisManagerIS2_JEEEJEED2Ev = comdat any

$_ZN4llvm6detail9PassModelINS_8FunctionENS_16LoopSimplifyPassENS_15AnalysisManagerIS2_JEEEJEED0Ev = comdat any

$_ZN4llvm6detail9PassModelINS_8FunctionENS_16LoopSimplifyPassENS_15AnalysisManagerIS2_JEEEJEE3runERS2_RS5_ = comdat any

$_ZN4llvm6detail9PassModelINS_8FunctionENS_16LoopSimplifyPassENS_15AnalysisManagerIS2_JEEEJEE13printPipelineERNS_11raw_ostreamENS_12function_refIFNS_9StringRefESA_EEE = comdat any

$_ZNK4llvm6detail9PassModelINS_8FunctionENS_16LoopSimplifyPassENS_15AnalysisManagerIS2_JEEEJEE4nameEv = comdat any

$_ZNK4llvm6detail9PassModelINS_8FunctionENS_16LoopSimplifyPassENS_15AnalysisManagerIS2_JEEEJEE10isRequiredEv = comdat any

$_ZN4llvm6detail11PassConceptINS_8FunctionENS_15AnalysisManagerIS2_JEEEJEED2Ev = comdat any

$_ZN4llvm6detail11PassConceptINS_8FunctionENS_15AnalysisManagerIS2_JEEEJEED0Ev = comdat any

$_ZN4llvm13PassInfoMixinINS_16LoopSimplifyPassEE13printPipelineERNS_11raw_ostreamENS_12function_refIFNS_9StringRefES6_EEE = comdat any

$_ZN4llvm13PassInfoMixinINS_16LoopSimplifyPassEE4nameEv = comdat any

$_ZNK4llvm12function_refIFNS_9StringRefES1_EEclES1_ = comdat any

$_ZN4llvm11raw_ostreamlsENS_9StringRefE = comdat any

$_ZN4llvm11getTypeNameINS_16LoopSimplifyPassEEENS_9StringRefEv = comdat any

$_ZN4llvm9StringRef13consume_frontES0_ = comdat any

$_ZNK4llvm9StringRef6substrEmm = comdat any

$_ZNK4llvm9StringRef10drop_frontEm = comdat any

$_ZNK4llvm9StringRef9ends_withES0_ = comdat any

$_ZNK4llvm9StringRef9drop_backEm = comdat any

$_ZN4llvm9StringRefC2EPKcm = comdat any

$_ZN4llvm9StringRef13compareMemoryEPKcS2_m = comdat any

$_ZNK4llvm9StringRef3endEv = comdat any

$_ZNK4llvm9StringRef11starts_withES0_ = comdat any

$_ZN4llvm6detail9PassModelINS_8FunctionENS_16LoopSimplifyPassENS_15AnalysisManagerIS2_JEEEJEE18passIsRequiredImplIS3_EENSt9enable_ifIXntsr11is_detectedINS6_14has_required_tET_EE5valueEbE4typeEv = comdat any

$_ZNSt15__uniq_ptr_dataIN4llvm6detail11PassConceptINS0_8FunctionENS0_15AnalysisManagerIS3_JEEEJEEESt14default_deleteIS6_ELb1ELb1EECI2St15__uniq_ptr_implIS6_S8_EEPS6_ = comdat any

$_ZNSt15__uniq_ptr_implIN4llvm6detail11PassConceptINS0_8FunctionENS0_15AnalysisManagerIS3_JEEEJEEESt14default_deleteIS6_EEC2EPS6_ = comdat any

$_ZNSt5tupleIJPN4llvm6detail11PassConceptINS0_8FunctionENS0_15AnalysisManagerIS3_JEEEJEEESt14default_deleteIS6_EEEC2ILb1ETnNSt9enable_ifIXclsr17_TupleConstraintsIXT_ES7_S9_EE37__is_implicitly_default_constructibleEEbE4typeELb1EEEv = comdat any

$_ZNSt11_Tuple_implILm0EJPN4llvm6detail11PassConceptINS0_8FunctionENS0_15AnalysisManagerIS3_JEEEJEEESt14default_deleteIS6_EEEC2Ev = comdat any

$_ZNSt11_Tuple_implILm1EJSt14default_deleteIN4llvm6detail11PassConceptINS1_8FunctionENS1_15AnalysisManagerIS4_JEEEJEEEEEEC2Ev = comdat any

$_ZNSt10_Head_baseILm0EPN4llvm6detail11PassConceptINS0_8FunctionENS0_15AnalysisManagerIS3_JEEEJEEELb0EEC2Ev = comdat any

$_ZNSt10_Head_baseILm1ESt14default_deleteIN4llvm6detail11PassConceptINS1_8FunctionENS1_15AnalysisManagerIS4_JEEEJEEEELb1EEC2Ev = comdat any

$_ZNSt10unique_ptrIN4llvm6detail11PassConceptINS0_8FunctionENS0_15AnalysisManagerIS3_JEEEJEEESt14default_deleteIS6_EE11get_deleterEv = comdat any

$_ZNKSt14default_deleteIN4llvm6detail11PassConceptINS0_8FunctionENS0_15AnalysisManagerIS3_JEEEJEEEEclEPS6_ = comdat any

$_ZNSt15__uniq_ptr_implIN4llvm6detail11PassConceptINS0_8FunctionENS0_15AnalysisManagerIS3_JEEEJEEESt14default_deleteIS6_EE10_M_deleterEv = comdat any

$_ZSt3getILm1EJPN4llvm6detail11PassConceptINS0_8FunctionENS0_15AnalysisManagerIS3_JEEEJEEESt14default_deleteIS6_EEERNSt13tuple_elementIXT_ESt5tupleIJDpT0_EEE4typeERSE_ = comdat any

$_ZSt12__get_helperILm1ESt14default_deleteIN4llvm6detail11PassConceptINS1_8FunctionENS1_15AnalysisManagerIS4_JEEEJEEEEJEERT0_RSt11_Tuple_implIXT_EJS9_DpT1_EE = comdat any

$_ZNSt11_Tuple_implILm1EJSt14default_deleteIN4llvm6detail11PassConceptINS1_8FunctionENS1_15AnalysisManagerIS4_JEEEJEEEEEE7_M_headERS9_ = comdat any

$_ZNSt10_Head_baseILm1ESt14default_deleteIN4llvm6detail11PassConceptINS1_8FunctionENS1_15AnalysisManagerIS4_JEEEJEEEELb1EE7_M_headERS9_ = comdat any

$_ZN4llvm15AnalysisManagerINS_8FunctionEJEE9getResultINS_12LoopAnalysisEEERNT_6ResultERS1_ = comdat any

$_ZN9__gnu_cxxneIPKPN4llvm4LoopESt6vectorIS3_SaIS3_EEEEbRKNS_17__normal_iteratorIT_T0_EESE_ = comdat any

$_ZNK9__gnu_cxx17__normal_iteratorIPKPN4llvm4LoopESt6vectorIS3_SaIS3_EEEdeEv = comdat any

$_ZNK4llvm9StringRef3strB5cxx11Ev = comdat any

$_ZN9__gnu_cxx17__normal_iteratorIPKPN4llvm4LoopESt6vectorIS3_SaIS3_EEEppEv = comdat any

$_ZN4llvm17PreservedAnalyses3allEv = comdat any

$_ZNK4llvm12DenseMapBaseINS_8DenseMapIPNS_11AnalysisKeyESt10unique_ptrINS_6detail19AnalysisPassConceptINS_8FunctionENS_15AnalysisManagerIS7_JEE11InvalidatorEJEEESt14default_deleteISB_EENS_12DenseMapInfoIS3_vEENS5_12DenseMapPairIS3_SE_EEEES3_SE_SG_SI_E5countEPKS2_ = comdat any

$_ZN4llvm17AnalysisInfoMixinINS_12LoopAnalysisEE2IDEv = comdat any

$_ZNK4llvm12DenseMapBaseINS_8DenseMapIPNS_11AnalysisKeyESt10unique_ptrINS_6detail19AnalysisPassConceptINS_8FunctionENS_15AnalysisManagerIS7_JEE11InvalidatorEJEEESt14default_deleteISB_EENS_12DenseMapInfoIS3_vEENS5_12DenseMapPairIS3_SE_EEEES3_SE_SG_SI_E8containsEPKS2_ = comdat any

$_ZNK4llvm12DenseMapBaseINS_8DenseMapIPNS_11AnalysisKeyESt10unique_ptrINS_6detail19AnalysisPassConceptINS_8FunctionENS_15AnalysisManagerIS7_JEE11InvalidatorEJEEESt14default_deleteISB_EENS_12DenseMapInfoIS3_vEENS5_12DenseMapPairIS3_SE_EEEES3_SE_SG_SI_E15LookupBucketForIPKS2_EEbRKT_RPKSI_ = comdat any

$_ZNK4llvm12DenseMapBaseINS_8DenseMapIPNS_11AnalysisKeyESt10unique_ptrINS_6detail19AnalysisPassConceptINS_8FunctionENS_15AnalysisManagerIS7_JEE11InvalidatorEJEEESt14default_deleteISB_EENS_12DenseMapInfoIS3_vEENS5_12DenseMapPairIS3_SE_EEEES3_SE_SG_SI_E10getBucketsEv = comdat any

$_ZNK4llvm12DenseMapBaseINS_8DenseMapIPNS_11AnalysisKeyESt10unique_ptrINS_6detail19AnalysisPassConceptINS_8FunctionENS_15AnalysisManagerIS7_JEE11InvalidatorEJEEESt14default_deleteISB_EENS_12DenseMapInfoIS3_vEENS5_12DenseMapPairIS3_SE_EEEES3_SE_SG_SI_E13getNumBucketsEv = comdat any

$_ZN4llvm12DenseMapBaseINS_8DenseMapIPNS_11AnalysisKeyESt10unique_ptrINS_6detail19AnalysisPassConceptINS_8FunctionENS_15AnalysisManagerIS7_JEE11InvalidatorEJEEESt14default_deleteISB_EENS_12DenseMapInfoIS3_vEENS5_12DenseMapPairIS3_SE_EEEES3_SE_SG_SI_E11getEmptyKeyEv = comdat any

$_ZN4llvm12DenseMapBaseINS_8DenseMapIPNS_11AnalysisKeyESt10unique_ptrINS_6detail19AnalysisPassConceptINS_8FunctionENS_15AnalysisManagerIS7_JEE11InvalidatorEJEEESt14default_deleteISB_EENS_12DenseMapInfoIS3_vEENS5_12DenseMapPairIS3_SE_EEEES3_SE_SG_SI_E15getTombstoneKeyEv = comdat any

$_ZN4llvm12DenseMapInfoIPNS_11AnalysisKeyEvE7isEqualEPKS1_S5_ = comdat any

$_ZN4llvm12DenseMapBaseINS_8DenseMapIPNS_11AnalysisKeyESt10unique_ptrINS_6detail19AnalysisPassConceptINS_8FunctionENS_15AnalysisManagerIS7_JEE11InvalidatorEJEEESt14default_deleteISB_EENS_12DenseMapInfoIS3_vEENS5_12DenseMapPairIS3_SE_EEEES3_SE_SG_SI_E12getHashValueIPKS2_EEjRKT_ = comdat any

$_ZNK4llvm6detail12DenseMapPairIPNS_11AnalysisKeyESt10unique_ptrINS0_19AnalysisPassConceptINS_8FunctionENS_15AnalysisManagerIS6_JEE11InvalidatorEJEEESt14default_deleteISA_EEE8getFirstEv = comdat any

$_ZNK4llvm8DenseMapIPNS_11AnalysisKeyESt10unique_ptrINS_6detail19AnalysisPassConceptINS_8FunctionENS_15AnalysisManagerIS6_JEE11InvalidatorEJEEESt14default_deleteISA_EENS_12DenseMapInfoIS2_vEENS4_12DenseMapPairIS2_SD_EEE10getBucketsEv = comdat any

$_ZNK4llvm8DenseMapIPNS_11AnalysisKeyESt10unique_ptrINS_6detail19AnalysisPassConceptINS_8FunctionENS_15AnalysisManagerIS6_JEE11InvalidatorEJEEESt14default_deleteISA_EENS_12DenseMapInfoIS2_vEENS4_12DenseMapPairIS2_SD_EEE13getNumBucketsEv = comdat any

$_ZN4llvm12DenseMapInfoIPNS_11AnalysisKeyEvE11getEmptyKeyEv = comdat any

$_ZN4llvm12DenseMapInfoIPNS_11AnalysisKeyEvE15getTombstoneKeyEv = comdat any

$_ZN4llvm12DenseMapInfoIPNS_11AnalysisKeyEvE12getHashValueEPKS1_ = comdat any

$_ZNK9__gnu_cxx17__normal_iteratorIPKPN4llvm4LoopESt6vectorIS3_SaIS3_EEE4baseEv = comdat any

$_ZNKSt6vectorIPN4llvm4LoopESaIS2_EE5emptyEv = comdat any

$_ZNK4llvm14iterator_rangeIPKPNS_10BasicBlockEE5beginEv = comdat any

$_ZNK4llvm14iterator_rangeIPKPNS_10BasicBlockEE3endEv = comdat any

$_ZN4llvm10BasicBlock5beginEv = comdat any

$_ZN4llvm10BasicBlock3endEv = comdat any

$_ZN4llvmneERKNS_21ilist_iterator_w_bitsINS_12ilist_detail12node_optionsINS_11InstructionELb0ELb0EvLb1ENS_10BasicBlockEEELb0ELb0EEES8_ = comdat any

$_ZNK4llvm21ilist_iterator_w_bitsINS_12ilist_detail12node_optionsINS_11InstructionELb0ELb0EvLb1ENS_10BasicBlockEEELb0ELb0EEdeEv = comdat any

$_ZN4llvm3isaINS_13AtomicRMWInstEPNS_11InstructionEEEbRKT0_ = comdat any

$_ZN4llvm3isaINS_9FenceInstEPNS_11InstructionEEEbRKT0_ = comdat any

$_ZN4llvm3isaINS_10BranchInstEPNS_11InstructionEEEbRKT0_ = comdat any

$_ZN4llvm21ilist_iterator_w_bitsINS_12ilist_detail12node_optionsINS_11InstructionELb0ELb0EvLb1ENS_10BasicBlockEEELb0ELb0EEppEv = comdat any

$_ZN4llvm11raw_ostreamlsEi = comdat any

$_ZN4llvm11raw_ostreamlsEPKc = comdat any

$_ZN4llvm11raw_ostreamlsERKNSt7__cxx1112basic_stringIcSt11char_traitsIcESaIcEEE = comdat any

$_ZN9__gnu_cxxeqIPKPN4llvm4LoopESt6vectorIS3_SaIS3_EEEEbRKNS_17__normal_iteratorIT_T0_EESE_ = comdat any

$_ZNKSt6vectorIPN4llvm4LoopESaIS2_EE5beginEv = comdat any

$_ZNKSt6vectorIPN4llvm4LoopESaIS2_EE3endEv = comdat any

$_ZN9__gnu_cxx17__normal_iteratorIPKPN4llvm4LoopESt6vectorIS3_SaIS3_EEEC2ERKS5_ = comdat any

$_ZN4llvm12simple_ilistINS_11InstructionEJNS_19ilist_iterator_bitsILb1EEENS_12ilist_parentINS_10BasicBlockEEEEE5beginEv = comdat any

$_ZNK4llvm21ilist_iterator_w_bitsINS_12ilist_detail12node_optionsINS_11InstructionELb0ELb0EvLb1ENS_10BasicBlockEEELb0ELb0EE10setHeadBitEb = comdat any

$_ZN4llvm21ilist_iterator_w_bitsINS_12ilist_detail12node_optionsINS_11InstructionELb0ELb0EvLb1ENS_10BasicBlockEEELb0ELb0EEC2ERNS_15ilist_node_implIS5_EE = comdat any

$_ZN4llvm12simple_ilistINS_11InstructionEJNS_19ilist_iterator_bitsILb1EEENS_12ilist_parentINS_10BasicBlockEEEEE3endEv = comdat any

$_ZNK4llvm12ilist_detail18node_base_prevnextINS_15ilist_node_baseILb0ENS_10BasicBlockEEELb0EE15isKnownSentinelEv = comdat any

$_ZN4llvm12ilist_detail18SpecificNodeAccessINS0_12node_optionsINS_11InstructionELb0ELb0EvLb1ENS_10BasicBlockEEEE11getValuePtrEPNS_15ilist_node_implIS5_EE = comdat any

$_ZN4llvm12ilist_detail10NodeAccess11getValuePtrINS0_12node_optionsINS_11InstructionELb0ELb0EvLb1ENS_10BasicBlockEEEEENT_7pointerEPNS_15ilist_node_implIS7_EE = comdat any

$_ZN4llvm8CastInfoINS_13AtomicRMWInstEKPNS_11InstructionEvE10isPossibleERS4_ = comdat any

$_ZN4llvm14CastIsPossibleINS_13AtomicRMWInstEPKNS_11InstructionEvE10isPossibleERKS4_ = comdat any

$_ZN4llvm13simplify_typeIKPNS_11InstructionEE18getSimplifiedValueERS3_ = comdat any

$_ZN4llvm13isa_impl_wrapINS_13AtomicRMWInstEKPKNS_11InstructionES4_E4doitERS5_ = comdat any

$_ZN4llvm13isa_impl_wrapINS_13AtomicRMWInstEPKNS_11InstructionES4_E4doitERKS4_ = comdat any

$_ZN4llvm13simplify_typeIKPKNS_11InstructionEE18getSimplifiedValueERS4_ = comdat any

$_ZN4llvm11isa_impl_clINS_13AtomicRMWInstEPKNS_11InstructionEE4doitES4_ = comdat any

$_ZN4llvm8isa_implINS_13AtomicRMWInstENS_11InstructionEvE4doitERKS2_ = comdat any

$_ZN4llvm13AtomicRMWInst7classofEPKNS_11InstructionE = comdat any

$_ZNK4llvm11Instruction9getOpcodeEv = comdat any

$_ZNK4llvm5Value10getValueIDEv = comdat any

$_ZN4llvm13simplify_typeIPKNS_11InstructionEE18getSimplifiedValueERS3_ = comdat any

$_ZN4llvm13simplify_typeIPNS_11InstructionEE18getSimplifiedValueERS2_ = comdat any

$_ZN4llvm8CastInfoINS_9FenceInstEKPNS_11InstructionEvE10isPossibleERS4_ = comdat any

$_ZN4llvm14CastIsPossibleINS_9FenceInstEPKNS_11InstructionEvE10isPossibleERKS4_ = comdat any

$_ZN4llvm13isa_impl_wrapINS_9FenceInstEKPKNS_11InstructionES4_E4doitERS5_ = comdat any

$_ZN4llvm13isa_impl_wrapINS_9FenceInstEPKNS_11InstructionES4_E4doitERKS4_ = comdat any

$_ZN4llvm11isa_impl_clINS_9FenceInstEPKNS_11InstructionEE4doitES4_ = comdat any

$_ZN4llvm8isa_implINS_9FenceInstENS_11InstructionEvE4doitERKS2_ = comdat any

$_ZN4llvm9FenceInst7classofEPKNS_11InstructionE = comdat any

$_ZN4llvm8CastInfoINS_10BranchInstEKPNS_11InstructionEvE10isPossibleERS4_ = comdat any

$_ZN4llvm14CastIsPossibleINS_10BranchInstEPKNS_11InstructionEvE10isPossibleERKS4_ = comdat any

$_ZN4llvm13isa_impl_wrapINS_10BranchInstEKPKNS_11InstructionES4_E4doitERS5_ = comdat any

$_ZN4llvm13isa_impl_wrapINS_10BranchInstEPKNS_11InstructionES4_E4doitERKS4_ = comdat any

$_ZN4llvm11isa_impl_clINS_10BranchInstEPKNS_11InstructionEE4doitES4_ = comdat any

$_ZN4llvm8isa_implINS_10BranchInstENS_11InstructionEvE4doitERKS2_ = comdat any

$_ZN4llvm10BranchInst7classofEPKNS_11InstructionE = comdat any

$_ZN4llvm15ilist_node_implINS_12ilist_detail12node_optionsINS_11InstructionELb0ELb0EvLb1ENS_10BasicBlockEEEE7getNextEv = comdat any

$_ZNK4llvm12ilist_detail18node_base_prevnextINS_15ilist_node_baseILb0ENS_10BasicBlockEEELb0EE7getNextEv = comdat any

$_ZNSt15__new_allocatorIcED2Ev = comdat any

$_ZN4llvm17PreservedAnalysesC2Ev = comdat any

$_ZN4llvm15SmallPtrSetImplIPvE6insertES1_ = comdat any

$_ZN4llvm17PreservedAnalysesD2Ev = comdat any

$_ZN4llvm11SmallPtrSetIPvLj2EEC2Ev = comdat any

$_ZN4llvm11SmallPtrSetIPNS_11AnalysisKeyELj2EEC2Ev = comdat any

$_ZN4llvm15SmallPtrSetImplIPvECI2NS_19SmallPtrSetImplBaseEEPPKvj = comdat any

$_ZN4llvm19SmallPtrSetImplBaseC2EPPKvj = comdat any

$_ZN4llvm15SmallPtrSetImplIPNS_11AnalysisKeyEECI2NS_19SmallPtrSetImplBaseEEPPKvj = comdat any

$_ZN4llvm19SmallPtrSetImplBase10insert_impEPKv = comdat any

$_ZN4llvm21PointerLikeTypeTraitsIPvE16getAsVoidPointerES1_ = comdat any

$_ZSt9make_pairIN4llvm19SmallPtrSetIteratorIPvEERbESt4pairINSt25__strip_reference_wrapperINSt5decayIT_E4typeEE6__typeENS6_INS7_IT0_E4typeEE6__typeEEOS8_OSD_ = comdat any

$_ZNK4llvm15SmallPtrSetImplIPvE12makeIteratorEPKPKv = comdat any

$_ZNK4llvm19SmallPtrSetImplBase7isSmallEv = comdat any

$_ZSt9make_pairIRPPKvbESt4pairINSt25__strip_reference_wrapperINSt5decayIT_E4typeEE6__typeENS5_INS6_IT0_E4typeEE6__typeEEOS7_OSC_ = comdat any

$_ZNSt4pairIPKPKvbEC2IPS1_bTnNSt9enable_ifIXaaclsr6_PCCFPIT_T0_EE22_MoveConstructiblePairIS8_S9_EEclsr6_PCCFPIS8_S9_EE30_ImplicitlyMoveConvertiblePairIS8_S9_EEEbE4typeELb1EEEOS_IS8_S9_E = comdat any

$_ZN4llvm14DebugEpochBase14incrementEpochEv = comdat any

$_ZSt9make_pairIPPKvbESt4pairINSt25__strip_reference_wrapperINSt5decayIT_E4typeEE6__typeENS4_INS5_IT0_E4typeEE6__typeEEOS6_OSB_ = comdat any

$_ZNSt4pairIPPKvbEC2IRS2_bTnNSt9enable_ifIXaaclsr5_PCCPE22_MoveConstructiblePairIT_T0_EEclsr5_PCCPE30_ImplicitlyMoveConvertiblePairIS7_S8_EEEbE4typeELb1EEEOS7_OS8_ = comdat any

$_ZNSt4pairIPPKvbEC2IS2_bTnNSt9enable_ifIXaaclsr5_PCCPE22_MoveConstructiblePairIT_T0_EEclsr5_PCCPE30_ImplicitlyMoveConvertiblePairIS6_S7_EEEbE4typeELb1EEEOS6_OS7_ = comdat any

$_ZNSt4pairIN4llvm19SmallPtrSetIteratorIPvEEbEC2IS3_RbTnNSt9enable_ifIXaaclsr5_PCCPE22_MoveConstructiblePairIT_T0_EEclsr5_PCCPE30_ImplicitlyMoveConvertiblePairIS8_S9_EEEbE4typeELb1EEEOS8_OS9_ = comdat any

$_ZN4llvm20shouldReverseIterateIPvEEbv = comdat any

$_ZNK4llvm19SmallPtrSetImplBase10EndPointerEv = comdat any

$_ZN4llvm19SmallPtrSetIteratorIPvEC2EPKPKvS6_RKNS_14DebugEpochBaseE = comdat any

$_ZN4llvm23SmallPtrSetIteratorImplC2EPKPKvS4_ = comdat any

$_ZN4llvm14DebugEpochBase10HandleBaseC2EPKS0_ = comdat any

$_ZN4llvm23SmallPtrSetIteratorImpl17RetreatIfNotValidEv = comdat any

$_ZN4llvm23SmallPtrSetIteratorImpl17AdvanceIfNotValidEv = comdat any

$_ZN4llvm19SmallPtrSetImplBase14getEmptyMarkerEv = comdat any

$_ZN4llvm19SmallPtrSetImplBase18getTombstoneMarkerEv = comdat any

$_ZN4llvm11SmallPtrSetIPNS_11AnalysisKeyELj2EED2Ev = comdat any

$_ZN4llvm11SmallPtrSetIPvLj2EED2Ev = comdat any

$_ZN4llvm15SmallPtrSetImplIPNS_11AnalysisKeyEED2Ev = comdat any

$_ZN4llvm19SmallPtrSetImplBaseD2Ev = comdat any

$_ZN4llvm15SmallPtrSetImplIPvED2Ev = comdat any

$_ZNKSt9_Any_data9_M_accessEv = comdat any

$_ZNSt9_Any_data9_M_accessIPKSt9type_infoEERT_v = comdat any

$_ZNSt14_Function_baseD2Ev = comdat any

$_ZTVN4llvm6detail9PassModelINS_8FunctionENS_16LoopSimplifyPassENS_15AnalysisManagerIS2_JEEEJEEE = comdat any

$_ZTSN4llvm6detail9PassModelINS_8FunctionENS_16LoopSimplifyPassENS_15AnalysisManagerIS2_JEEEJEEE = comdat any

$_ZTSN4llvm6detail11PassConceptINS_8FunctionENS_15AnalysisManagerIS2_JEEEJEEE = comdat any

$_ZTIN4llvm6detail11PassConceptINS_8FunctionENS_15AnalysisManagerIS2_JEEEJEEE = comdat any

$_ZTIN4llvm6detail9PassModelINS_8FunctionENS_16LoopSimplifyPassENS_15AnalysisManagerIS2_JEEEJEEE = comdat any

$_ZTVN4llvm6detail11PassConceptINS_8FunctionENS_15AnalysisManagerIS2_JEEEJEEE = comdat any

@_ZN4llvm24DisableABIBreakingChecksE = external global i32, align 4
@_ZN4llvm30VerifyDisableABIBreakingChecksE = weak hidden global ptr @_ZN4llvm24DisableABIBreakingChecksE, align 8, !dbg !0
@.str = private unnamed_addr constant [35 x i8] c"ml55822_mp46753-Loop-Analysis-Pass\00", align 1, !dbg !6
@.str.1 = private unnamed_addr constant [7 x i8] c"19.1.1\00", align 1, !dbg !14
@.str.2 = private unnamed_addr constant [35 x i8] c"ml55822_mp46753-loop-analysis-pass\00", align 1, !dbg !19
@.str.3 = private unnamed_addr constant [26 x i8] c"vector::_M_realloc_insert\00", align 1, !dbg !21
@_ZTVN4llvm6detail9PassModelINS_8FunctionENS_16LoopSimplifyPassENS_15AnalysisManagerIS2_JEEEJEEE = linkonce_odr dso_local unnamed_addr constant { [8 x ptr] } { [8 x ptr] [ptr null, ptr @_ZTIN4llvm6detail9PassModelINS_8FunctionENS_16LoopSimplifyPassENS_15AnalysisManagerIS2_JEEEJEEE, ptr @_ZN4llvm6detail9PassModelINS_8FunctionENS_16LoopSimplifyPassENS_15AnalysisManagerIS2_JEEEJEED2Ev, ptr @_ZN4llvm6detail9PassModelINS_8FunctionENS_16LoopSimplifyPassENS_15AnalysisManagerIS2_JEEEJEED0Ev, ptr @_ZN4llvm6detail9PassModelINS_8FunctionENS_16LoopSimplifyPassENS_15AnalysisManagerIS2_JEEEJEE3runERS2_RS5_, ptr @_ZN4llvm6detail9PassModelINS_8FunctionENS_16LoopSimplifyPassENS_15AnalysisManagerIS2_JEEEJEE13printPipelineERNS_11raw_ostreamENS_12function_refIFNS_9StringRefESA_EEE, ptr @_ZNK4llvm6detail9PassModelINS_8FunctionENS_16LoopSimplifyPassENS_15AnalysisManagerIS2_JEEEJEE4nameEv, ptr @_ZNK4llvm6detail9PassModelINS_8FunctionENS_16LoopSimplifyPassENS_15AnalysisManagerIS2_JEEEJEE10isRequiredEv] }, comdat, align 8
@_ZTVN10__cxxabiv120__si_class_type_infoE = external global [0 x ptr]
@_ZTSN4llvm6detail9PassModelINS_8FunctionENS_16LoopSimplifyPassENS_15AnalysisManagerIS2_JEEEJEEE = linkonce_odr dso_local constant [92 x i8] c"N4llvm6detail9PassModelINS_8FunctionENS_16LoopSimplifyPassENS_15AnalysisManagerIS2_JEEEJEEE\00", comdat, align 1
@_ZTVN10__cxxabiv117__class_type_infoE = external global [0 x ptr]
@_ZTSN4llvm6detail11PassConceptINS_8FunctionENS_15AnalysisManagerIS2_JEEEJEEE = linkonce_odr dso_local constant [73 x i8] c"N4llvm6detail11PassConceptINS_8FunctionENS_15AnalysisManagerIS2_JEEEJEEE\00", comdat, align 1
@_ZTIN4llvm6detail11PassConceptINS_8FunctionENS_15AnalysisManagerIS2_JEEEJEEE = linkonce_odr dso_local constant { ptr, ptr } { ptr getelementptr inbounds (ptr, ptr @_ZTVN10__cxxabiv117__class_type_infoE, i64 2), ptr @_ZTSN4llvm6detail11PassConceptINS_8FunctionENS_15AnalysisManagerIS2_JEEEJEEE }, comdat, align 8
@_ZTIN4llvm6detail9PassModelINS_8FunctionENS_16LoopSimplifyPassENS_15AnalysisManagerIS2_JEEEJEEE = linkonce_odr dso_local constant { ptr, ptr, ptr } { ptr getelementptr inbounds (ptr, ptr @_ZTVN10__cxxabiv120__si_class_type_infoE, i64 2), ptr @_ZTSN4llvm6detail9PassModelINS_8FunctionENS_16LoopSimplifyPassENS_15AnalysisManagerIS2_JEEEJEEE, ptr @_ZTIN4llvm6detail11PassConceptINS_8FunctionENS_15AnalysisManagerIS2_JEEEJEEE }, comdat, align 8
@_ZTVN4llvm6detail11PassConceptINS_8FunctionENS_15AnalysisManagerIS2_JEEEJEEE = linkonce_odr dso_local unnamed_addr constant { [8 x ptr] } { [8 x ptr] [ptr null, ptr @_ZTIN4llvm6detail11PassConceptINS_8FunctionENS_15AnalysisManagerIS2_JEEEJEEE, ptr @_ZN4llvm6detail11PassConceptINS_8FunctionENS_15AnalysisManagerIS2_JEEEJEED2Ev, ptr @_ZN4llvm6detail11PassConceptINS_8FunctionENS_15AnalysisManagerIS2_JEEEJEED0Ev, ptr @__cxa_pure_virtual, ptr @__cxa_pure_virtual, ptr @__cxa_pure_virtual, ptr @__cxa_pure_virtual] }, comdat, align 8
@.str.4 = private unnamed_addr constant [7 x i8] c"llvm::\00", align 1, !dbg !27
@__PRETTY_FUNCTION__._ZN4llvm11getTypeNameINS_16LoopSimplifyPassEEENS_9StringRefEv = private unnamed_addr constant [73 x i8] c"StringRef llvm::getTypeName() [DesiredTypeName = llvm::LoopSimplifyPass]\00", align 1, !dbg !30
@.str.5 = private unnamed_addr constant [19 x i8] c"DesiredTypeName = \00", align 1, !dbg !36
@.str.6 = private unnamed_addr constant [39 x i8] c"Unable to find the template parameter!\00", align 1, !dbg !41
@.str.7 = private unnamed_addr constant [58 x i8] c"!Name.empty() && \22Unable to find the template parameter!\22\00", align 1, !dbg !46
@.str.8 = private unnamed_addr constant [49 x i8] c"/usr/lib/llvm-19/include/llvm/Support/TypeName.h\00", align 1
@.str.9 = private unnamed_addr constant [2 x i8] c"]\00", align 1, !dbg !51
@.str.10 = private unnamed_addr constant [42 x i8] c"Name doesn't end in the substitution key!\00", align 1, !dbg !56
@.str.11 = private unnamed_addr constant [67 x i8] c"Name.ends_with(\22]\22) && \22Name doesn't end in the substitution key!\22\00", align 1, !dbg !61
@.str.12 = private unnamed_addr constant [34 x i8] c"Dropping more elements than exist\00", align 1, !dbg !66
@.str.13 = private unnamed_addr constant [51 x i8] c"size() >= N && \22Dropping more elements than exist\22\00", align 1, !dbg !72
@.str.14 = private unnamed_addr constant [46 x i8] c"/usr/lib/llvm-19/include/llvm/ADT/StringRef.h\00", align 1
@__PRETTY_FUNCTION__._ZNK4llvm9StringRef10drop_frontEm = private unnamed_addr constant [52 x i8] c"StringRef llvm::StringRef::drop_front(size_t) const\00", align 1, !dbg !77
@__PRETTY_FUNCTION__._ZNK4llvm9StringRef9drop_backEm = private unnamed_addr constant [51 x i8] c"StringRef llvm::StringRef::drop_back(size_t) const\00", align 1, !dbg !82
@_ZTVN4llvm6detail9PassModelINS_8FunctionEN12_GLOBAL__N_18LoopPassENS_15AnalysisManagerIS2_JEEEJEEE = internal unnamed_addr constant { [8 x ptr] } { [8 x ptr] [ptr null, ptr @_ZTIN4llvm6detail9PassModelINS_8FunctionEN12_GLOBAL__N_18LoopPassENS_15AnalysisManagerIS2_JEEEJEEE, ptr @_ZN4llvm6detail9PassModelINS_8FunctionEN12_GLOBAL__N_18LoopPassENS_15AnalysisManagerIS2_JEEEJEED2Ev, ptr @_ZN4llvm6detail9PassModelINS_8FunctionEN12_GLOBAL__N_18LoopPassENS_15AnalysisManagerIS2_JEEEJEED0Ev, ptr @_ZN4llvm6detail9PassModelINS_8FunctionEN12_GLOBAL__N_18LoopPassENS_15AnalysisManagerIS2_JEEEJEE3runERS2_RS6_, ptr @_ZN4llvm6detail9PassModelINS_8FunctionEN12_GLOBAL__N_18LoopPassENS_15AnalysisManagerIS2_JEEEJEE13printPipelineERNS_11raw_ostreamENS_12function_refIFNS_9StringRefESB_EEE, ptr @_ZNK4llvm6detail9PassModelINS_8FunctionEN12_GLOBAL__N_18LoopPassENS_15AnalysisManagerIS2_JEEEJEE4nameEv, ptr @_ZNK4llvm6detail9PassModelINS_8FunctionEN12_GLOBAL__N_18LoopPassENS_15AnalysisManagerIS2_JEEEJEE10isRequiredEv] }, align 8
@_ZTSN4llvm6detail9PassModelINS_8FunctionEN12_GLOBAL__N_18LoopPassENS_15AnalysisManagerIS2_JEEEJEEE = internal constant [95 x i8] c"N4llvm6detail9PassModelINS_8FunctionEN12_GLOBAL__N_18LoopPassENS_15AnalysisManagerIS2_JEEEJEEE\00", align 1
@_ZTIN4llvm6detail9PassModelINS_8FunctionEN12_GLOBAL__N_18LoopPassENS_15AnalysisManagerIS2_JEEEJEEE = internal constant { ptr, ptr, ptr } { ptr getelementptr inbounds (ptr, ptr @_ZTVN10__cxxabiv120__si_class_type_infoE, i64 2), ptr @_ZTSN4llvm6detail9PassModelINS_8FunctionEN12_GLOBAL__N_18LoopPassENS_15AnalysisManagerIS2_JEEEJEEE, ptr @_ZTIN4llvm6detail11PassConceptINS_8FunctionENS_15AnalysisManagerIS2_JEEEJEEE }, align 8
@.str.15 = private unnamed_addr constant [61 x i8] c"This analysis pass was not registered prior to being queried\00", align 1, !dbg !84
@.str.16 = private unnamed_addr constant [100 x i8] c"AnalysisPasses.count(PassT::ID()) && \22This analysis pass was not registered prior to being queried\22\00", align 1, !dbg !89
@.str.17 = private unnamed_addr constant [47 x i8] c"/usr/lib/llvm-19/include/llvm/IR/PassManager.h\00", align 1
@__PRETTY_FUNCTION__._ZN4llvm15AnalysisManagerINS_8FunctionEJEE9getResultINS_12LoopAnalysisEEERNT_6ResultERS1_ = private unnamed_addr constant [171 x i8] c"typename PassT::Result &llvm::AnalysisManager<llvm::Function>::getResult(IRUnitT &, ExtraArgTs...) [IRUnitT = llvm::Function, ExtraArgTs = <>, PassT = llvm::LoopAnalysis]\00", align 1, !dbg !94
@.str.18 = private unnamed_addr constant [54 x i8] c"Empty/Tombstone value shouldn't be inserted into map!\00", align 1, !dbg !99
@.str.19 = private unnamed_addr constant [134 x i8] c"!KeyInfoT::isEqual(Val, EmptyKey) && !KeyInfoT::isEqual(Val, TombstoneKey) && \22Empty/Tombstone value shouldn't be inserted into map!\22\00", align 1, !dbg !105
@.str.20 = private unnamed_addr constant [45 x i8] c"/usr/lib/llvm-19/include/llvm/ADT/DenseMap.h\00", align 1
@__PRETTY_FUNCTION__._ZNK4llvm12DenseMapBaseINS_8DenseMapIPNS_11AnalysisKeyESt10unique_ptrINS_6detail19AnalysisPassConceptINS_8FunctionENS_15AnalysisManagerIS7_JEE11InvalidatorEJEEESt14default_deleteISB_EENS_12DenseMapInfoIS3_vEENS5_12DenseMapPairIS3_SE_EEEES3_SE_SG_SI_E15LookupBucketForIPKS2_EEbRKT_RPKSI_ = private unnamed_addr constant [1190 x i8] c"bool llvm::DenseMapBase<llvm::DenseMap<llvm::AnalysisKey *, std::unique_ptr<llvm::detail::AnalysisPassConcept<llvm::Function, llvm::AnalysisManager<llvm::Function>::Invalidator>>>, llvm::AnalysisKey *, std::unique_ptr<llvm::detail::AnalysisPassConcept<llvm::Function, llvm::AnalysisManager<llvm::Function>::Invalidator>>, llvm::DenseMapInfo<llvm::AnalysisKey *>, llvm::detail::DenseMapPair<llvm::AnalysisKey *, std::unique_ptr<llvm::detail::AnalysisPassConcept<llvm::Function, llvm::AnalysisManager<llvm::Function>::Invalidator>>>>::LookupBucketFor(const LookupKeyT &, const BucketT *&) const [DerivedT = llvm::DenseMap<llvm::AnalysisKey *, std::unique_ptr<llvm::detail::AnalysisPassConcept<llvm::Function, llvm::AnalysisManager<llvm::Function>::Invalidator>>>, KeyT = llvm::AnalysisKey *, ValueT = std::unique_ptr<llvm::detail::AnalysisPassConcept<llvm::Function, llvm::AnalysisManager<llvm::Function>::Invalidator>>, KeyInfoT = llvm::DenseMapInfo<llvm::AnalysisKey *>, BucketT = llvm::detail::DenseMapPair<llvm::AnalysisKey *, std::unique_ptr<llvm::detail::AnalysisPassConcept<llvm::Function, llvm::AnalysisManager<llvm::Function>::Invalidator>>>, LookupKeyT = const llvm::AnalysisKey *]\00", align 1, !dbg !110
@_ZN4llvm12LoopAnalysis3KeyE = external global %"struct.llvm::AnalysisKey", align 8
@_ZN12_GLOBAL__N_18LoopPass9LoopCountE = internal global i32 0, align 4, !dbg !115
@.str.21 = private unnamed_addr constant [8 x i8] c": func=\00", align 1, !dbg !3207
@.str.22 = private unnamed_addr constant [9 x i8] c", depth=\00", align 1, !dbg !3212
@.str.23 = private unnamed_addr constant [12 x i8] c", subLoops=\00", align 1, !dbg !3217
@.str.24 = private unnamed_addr constant [5 x i8] c"true\00", align 1, !dbg !3222
@.str.25 = private unnamed_addr constant [6 x i8] c"false\00", align 1, !dbg !3227
@.str.26 = private unnamed_addr constant [7 x i8] c", BBs=\00", align 1, !dbg !3232
@.str.27 = private unnamed_addr constant [10 x i8] c", instrs=\00", align 1, !dbg !3234
@.str.28 = private unnamed_addr constant [11 x i8] c", atomics=\00", align 1, !dbg !3239
@.str.29 = private unnamed_addr constant [12 x i8] c", branches=\00", align 1, !dbg !3244
@.str.30 = private unnamed_addr constant [2 x i8] c"\0A\00", align 1, !dbg !3246
@.str.31 = private unnamed_addr constant [28 x i8] c"!NodePtr->isKnownSentinel()\00", align 1, !dbg !3248
@.str.32 = private unnamed_addr constant [51 x i8] c"/usr/lib/llvm-19/include/llvm/ADT/ilist_iterator.h\00", align 1
@__PRETTY_FUNCTION__._ZNK4llvm21ilist_iterator_w_bitsINS_12ilist_detail12node_optionsINS_11InstructionELb0ELb0EvLb1ENS_10BasicBlockEEELb0ELb0EEdeEv = private unnamed_addr constant [313 x i8] c"reference llvm::ilist_iterator_w_bits<llvm::ilist_detail::node_options<llvm::Instruction, false, false, void, true, llvm::BasicBlock>, false, false>::operator*() const [OptionsT = llvm::ilist_detail::node_options<llvm::Instruction, false, false, void, true, llvm::BasicBlock>, IsReverse = false, IsConst = false]\00", align 1, !dbg !3253
@.str.33 = private unnamed_addr constant [29 x i8] c"isa<> used on a null pointer\00", align 1, !dbg !3258
@.str.34 = private unnamed_addr constant [38 x i8] c"Val && \22isa<> used on a null pointer\22\00", align 1, !dbg !3264
@.str.35 = private unnamed_addr constant [48 x i8] c"/usr/lib/llvm-19/include/llvm/Support/Casting.h\00", align 1
@__PRETTY_FUNCTION__._ZN4llvm11isa_impl_clINS_13AtomicRMWInstEPKNS_11InstructionEE4doitES4_ = private unnamed_addr constant [159 x i8] c"static bool llvm::isa_impl_cl<llvm::AtomicRMWInst, const llvm::Instruction *>::doit(const From *) [To = llvm::AtomicRMWInst, From = const llvm::Instruction *]\00", align 1, !dbg !3269
@__PRETTY_FUNCTION__._ZN4llvm11isa_impl_clINS_9FenceInstEPKNS_11InstructionEE4doitES4_ = private unnamed_addr constant [151 x i8] c"static bool llvm::isa_impl_cl<llvm::FenceInst, const llvm::Instruction *>::doit(const From *) [To = llvm::FenceInst, From = const llvm::Instruction *]\00", align 1, !dbg !3274
@__PRETTY_FUNCTION__._ZN4llvm11isa_impl_clINS_10BranchInstEPKNS_11InstructionEE4doitES4_ = private unnamed_addr constant [153 x i8] c"static bool llvm::isa_impl_cl<llvm::BranchInst, const llvm::Instruction *>::doit(const From *) [To = llvm::BranchInst, From = const llvm::Instruction *]\00", align 1, !dbg !3279
@_ZN4llvm17PreservedAnalyses14AllAnalysesKeyE = external global %"struct.llvm::AnalysisSetKey", align 8
@.str.36 = private unnamed_addr constant [37 x i8] c"Initial size must be a power of two!\00", align 1, !dbg !3284
@.str.37 = private unnamed_addr constant [88 x i8] c"SmallSize && (SmallSize & (SmallSize-1)) == 0 && \22Initial size must be a power of two!\22\00", align 1, !dbg !3289
@.str.38 = private unnamed_addr constant [48 x i8] c"/usr/lib/llvm-19/include/llvm/ADT/SmallPtrSet.h\00", align 1
@__PRETTY_FUNCTION__._ZN4llvm19SmallPtrSetImplBaseC2EPPKvj = private unnamed_addr constant [76 x i8] c"llvm::SmallPtrSetImplBase::SmallPtrSetImplBase(const void **, unsigned int)\00", align 1, !dbg !3294
@.str.39 = private unnamed_addr constant [14 x i8] c"Bucket >= End\00", align 1, !dbg !3299
@__PRETTY_FUNCTION__._ZN4llvm23SmallPtrSetIteratorImpl17RetreatIfNotValidEv = private unnamed_addr constant [56 x i8] c"void llvm::SmallPtrSetIteratorImpl::RetreatIfNotValid()\00", align 1, !dbg !3304
@.str.40 = private unnamed_addr constant [14 x i8] c"Bucket <= End\00", align 1, !dbg !3309
@__PRETTY_FUNCTION__._ZN4llvm23SmallPtrSetIteratorImpl17AdvanceIfNotValidEv = private unnamed_addr constant [56 x i8] c"void llvm::SmallPtrSetIteratorImpl::AdvanceIfNotValid()\00", align 1, !dbg !3311
@__PRETTY_FUNCTION__._ZN4llvm11getTypeNameIN12_GLOBAL__N_18LoopPassEEENS_9StringRefEv = private unnamed_addr constant [82 x i8] c"StringRef llvm::getTypeName() [DesiredTypeName = (anonymous namespace)::LoopPass]\00", align 1, !dbg !3313
@"_ZTSZZ23getHelloWorldPluginInfovENK3$_0clERN4llvm11PassBuilderEEUlNS0_9StringRefERNS0_11PassManagerINS0_8FunctionENS0_15AnalysisManagerIS5_JEEEJEEENS0_8ArrayRefINS1_15PipelineElementEEEE_" = internal constant [184 x i8] c"ZZ23getHelloWorldPluginInfovENK3$_0clERN4llvm11PassBuilderEEUlNS0_9StringRefERNS0_11PassManagerINS0_8FunctionENS0_15AnalysisManagerIS5_JEEEJEEENS0_8ArrayRefINS1_15PipelineElementEEEE_\00", align 1
@"_ZTIZZ23getHelloWorldPluginInfovENK3$_0clERN4llvm11PassBuilderEEUlNS0_9StringRefERNS0_11PassManagerINS0_8FunctionENS0_15AnalysisManagerIS5_JEEEJEEENS0_8ArrayRefINS1_15PipelineElementEEEE_" = internal constant { ptr, ptr } { ptr getelementptr inbounds (ptr, ptr @_ZTVN10__cxxabiv117__class_type_infoE, i64 2), ptr @"_ZTSZZ23getHelloWorldPluginInfovENK3$_0clERN4llvm11PassBuilderEEUlNS0_9StringRefERNS0_11PassManagerINS0_8FunctionENS0_15AnalysisManagerIS5_JEEEJEEENS0_8ArrayRefINS1_15PipelineElementEEEE_" }, align 8

; Function Attrs: mustprogress noinline nounwind optnone uwtable
define dso_local void @_Z23getHelloWorldPluginInfov(ptr dead_on_unwind noalias writable sret(%"struct.llvm::PassPluginLibraryInfo") align 8 %0) #0 !dbg !960 {
  %2 = alloca %class.anon, align 1
  %3 = getelementptr inbounds %"struct.llvm::PassPluginLibraryInfo", ptr %0, i32 0, i32 0, !dbg !4272
  store i32 1, ptr %3, align 8, !dbg !4272
  %4 = getelementptr inbounds %"struct.llvm::PassPluginLibraryInfo", ptr %0, i32 0, i32 1, !dbg !4272
  store ptr @.str, ptr %4, align 8, !dbg !4272
  %5 = getelementptr inbounds %"struct.llvm::PassPluginLibraryInfo", ptr %0, i32 0, i32 2, !dbg !4272
  store ptr @.str.1, ptr %5, align 8, !dbg !4272
  %6 = getelementptr inbounds %"struct.llvm::PassPluginLibraryInfo", ptr %0, i32 0, i32 3, !dbg !4272
  %7 = call noundef ptr @"_ZZ23getHelloWorldPluginInfovENK3$_0cvPFvRN4llvm11PassBuilderEEEv"(ptr noundef nonnull align 1 dereferenceable(1) %2) #12, !dbg !4273
  store ptr %7, ptr %6, align 8, !dbg !4272
  ret void, !dbg !4274
}

; Function Attrs: mustprogress noinline nounwind optnone uwtable
define internal noundef ptr @"_ZZ23getHelloWorldPluginInfovENK3$_0cvPFvRN4llvm11PassBuilderEEEv"(ptr noundef nonnull align 1 dereferenceable(1) %0) #0 align 2 !dbg !4275 {
  %2 = alloca ptr, align 8
  store ptr %0, ptr %2, align 8
    #dbg_declare(ptr %2, !4279, !DIExpression(), !4281)
  %3 = load ptr, ptr %2, align 8
  ret ptr @"_ZZ23getHelloWorldPluginInfovEN3$_08__invokeERN4llvm11PassBuilderE", !dbg !4282
}

; Function Attrs: mustprogress noinline nounwind optnone uwtable
define weak dso_local void @llvmGetPassPluginInfo(ptr dead_on_unwind noalias writable sret(%"struct.llvm::PassPluginLibraryInfo") align 8 %0) #0 !dbg !4283 {
  call void @_Z23getHelloWorldPluginInfov(ptr dead_on_unwind writable sret(%"struct.llvm::PassPluginLibraryInfo") align 8 %0), !dbg !4284
  ret void, !dbg !4285
}

; Function Attrs: mustprogress noinline nounwind optnone uwtable
define internal void @"_ZZ23getHelloWorldPluginInfovEN3$_08__invokeERN4llvm11PassBuilderE"(ptr noundef nonnull align 8 dereferenceable(2208) %0) #0 align 2 !dbg !4286 {
  %2 = alloca ptr, align 8
  %3 = alloca %class.anon, align 1
  store ptr %0, ptr %2, align 8
    #dbg_declare(ptr %2, !4288, !DIExpression(), !4289)
  %4 = load ptr, ptr %2, align 8, !dbg !4290
  call void @"_ZZ23getHelloWorldPluginInfovENK3$_0clERN4llvm11PassBuilderE"(ptr noundef nonnull align 1 dereferenceable(1) %3, ptr noundef nonnull align 8 dereferenceable(2208) %4), !dbg !4290
  ret void, !dbg !4290
}

; Function Attrs: mustprogress noinline nounwind optnone uwtable
define internal void @"_ZZ23getHelloWorldPluginInfovENK3$_0clERN4llvm11PassBuilderE"(ptr noundef nonnull align 1 dereferenceable(1) %0, ptr noundef nonnull align 8 dereferenceable(2208) %1) #0 align 2 !dbg !958 {
  %3 = alloca ptr, align 8
  %4 = alloca ptr, align 8
  %5 = alloca %"class.std::function", align 8
  %6 = alloca %class.anon.82, align 1
  store ptr %0, ptr %3, align 8
    #dbg_declare(ptr %3, !4291, !DIExpression(), !4292)
  store ptr %1, ptr %4, align 8
    #dbg_declare(ptr %4, !4293, !DIExpression(), !4294)
  %7 = load ptr, ptr %3, align 8
  %8 = load ptr, ptr %4, align 8, !dbg !4295
  call void @"_ZNSt8functionIFbN4llvm9StringRefERNS0_11PassManagerINS0_8FunctionENS0_15AnalysisManagerIS3_JEEEJEEENS0_8ArrayRefINS0_11PassBuilder15PipelineElementEEEEEC2IZZ23getHelloWorldPluginInfovENK3$_0clERS9_EUlS1_S7_SB_E_vEEOT_"(ptr noundef nonnull align 8 dereferenceable(32) %5, ptr noundef nonnull align 1 dereferenceable(1) %6) #12, !dbg !4296
  call void @_ZN4llvm11PassBuilder31registerPipelineParsingCallbackERKSt8functionIFbNS_9StringRefERNS_11PassManagerINS_8FunctionENS_15AnalysisManagerIS4_JEEEJEEENS_8ArrayRefINS0_15PipelineElementEEEEE(ptr noundef nonnull align 8 dereferenceable(2208) %8, ptr noundef nonnull align 8 dereferenceable(32) %5), !dbg !4297
  call void @_ZNSt8functionIFbN4llvm9StringRefERNS0_11PassManagerINS0_8FunctionENS0_15AnalysisManagerIS3_JEEEJEEENS0_8ArrayRefINS0_11PassBuilder15PipelineElementEEEEED2Ev(ptr noundef nonnull align 8 dereferenceable(32) %5) #12, !dbg !4295
  ret void, !dbg !4298
}

; Function Attrs: mustprogress noinline nounwind optnone uwtable
define linkonce_odr dso_local void @_ZN4llvm11PassBuilder31registerPipelineParsingCallbackERKSt8functionIFbNS_9StringRefERNS_11PassManagerINS_8FunctionENS_15AnalysisManagerIS4_JEEEJEEENS_8ArrayRefINS0_15PipelineElementEEEEE(ptr noundef nonnull align 8 dereferenceable(2208) %0, ptr noundef nonnull align 8 dereferenceable(32) %1) #0 comdat align 2 !dbg !4299 {
  %3 = alloca ptr, align 8
  %4 = alloca ptr, align 8
  store ptr %0, ptr %3, align 8
    #dbg_declare(ptr %3, !4304, !DIExpression(), !4306)
  store ptr %1, ptr %4, align 8
    #dbg_declare(ptr %4, !4307, !DIExpression(), !4308)
  %5 = load ptr, ptr %3, align 8
  %6 = getelementptr inbounds %"class.llvm::PassBuilder", ptr %5, i32 0, i32 23, !dbg !4309
  %7 = load ptr, ptr %4, align 8, !dbg !4310
  call void @_ZN4llvm23SmallVectorTemplateBaseISt8functionIFbNS_9StringRefERNS_11PassManagerINS_8FunctionENS_15AnalysisManagerIS4_JEEEJEEENS_8ArrayRefINS_11PassBuilder15PipelineElementEEEEELb0EE9push_backERKSE_(ptr noundef nonnull align 8 dereferenceable(16) %6, ptr noundef nonnull align 8 dereferenceable(32) %7), !dbg !4311
  ret void, !dbg !4312
}

; Function Attrs: mustprogress noinline nounwind optnone uwtable
define internal void @"_ZNSt8functionIFbN4llvm9StringRefERNS0_11PassManagerINS0_8FunctionENS0_15AnalysisManagerIS3_JEEEJEEENS0_8ArrayRefINS0_11PassBuilder15PipelineElementEEEEEC2IZZ23getHelloWorldPluginInfovENK3$_0clERS9_EUlS1_S7_SB_E_vEEOT_"(ptr noundef nonnull align 8 dereferenceable(32) %0, ptr noundef nonnull align 1 dereferenceable(1) %1) unnamed_addr #0 align 2 !dbg !4313 {
  %3 = alloca ptr, align 8
  %4 = alloca ptr, align 8
  store ptr %0, ptr %3, align 8
    #dbg_declare(ptr %3, !4321, !DIExpression(), !4322)
  store ptr %1, ptr %4, align 8
    #dbg_declare(ptr %4, !4323, !DIExpression(), !4324)
  %5 = load ptr, ptr %3, align 8
  %6 = getelementptr inbounds i8, ptr %5, i64 0, !dbg !4325
  call void @llvm.memset.p0.i64(ptr align 8 %6, i8 0, i64 24, i1 false), !dbg !4325
  call void @_ZNSt14_Function_baseC2Ev(ptr noundef nonnull align 8 dereferenceable(24) %5) #12, !dbg !4325
  %7 = getelementptr inbounds %"class.std::function", ptr %5, i32 0, i32 1, !dbg !4326
  store ptr null, ptr %7, align 8, !dbg !4326
  %8 = load ptr, ptr %4, align 8, !dbg !4327
  %9 = call noundef zeroext i1 @"_ZNSt14_Function_base13_Base_managerIZZ23getHelloWorldPluginInfovENK3$_0clERN4llvm11PassBuilderEEUlNS2_9StringRefERNS2_11PassManagerINS2_8FunctionENS2_15AnalysisManagerIS7_JEEEJEEENS2_8ArrayRefINS3_15PipelineElementEEEE_E21_M_not_empty_functionISF_EEbRKT_"(ptr noundef nonnull align 1 dereferenceable(1) %8) #12, !dbg !4330
  br i1 %9, label %10, label %15, !dbg !4331

10:                                               ; preds = %2
  %11 = getelementptr inbounds %"class.std::_Function_base", ptr %5, i32 0, i32 0, !dbg !4332
  %12 = load ptr, ptr %4, align 8, !dbg !4334
  call void @"_ZNSt14_Function_base13_Base_managerIZZ23getHelloWorldPluginInfovENK3$_0clERN4llvm11PassBuilderEEUlNS2_9StringRefERNS2_11PassManagerINS2_8FunctionENS2_15AnalysisManagerIS7_JEEEJEEENS2_8ArrayRefINS3_15PipelineElementEEEE_E15_M_init_functorISF_EEvRSt9_Any_dataOT_"(ptr noundef nonnull align 8 dereferenceable(16) %11, ptr noundef nonnull align 1 dereferenceable(1) %12) #12, !dbg !4335
  %13 = getelementptr inbounds %"class.std::function", ptr %5, i32 0, i32 1, !dbg !4336
  store ptr @"_ZNSt17_Function_handlerIFbN4llvm9StringRefERNS0_11PassManagerINS0_8FunctionENS0_15AnalysisManagerIS3_JEEEJEEENS0_8ArrayRefINS0_11PassBuilder15PipelineElementEEEEZZ23getHelloWorldPluginInfovENK3$_0clERS9_EUlS1_S7_SB_E_E9_M_invokeERKSt9_Any_dataOS1_S7_OSB_", ptr %13, align 8, !dbg !4337
  %14 = getelementptr inbounds %"class.std::_Function_base", ptr %5, i32 0, i32 1, !dbg !4338
  store ptr @"_ZNSt17_Function_handlerIFbN4llvm9StringRefERNS0_11PassManagerINS0_8FunctionENS0_15AnalysisManagerIS3_JEEEJEEENS0_8ArrayRefINS0_11PassBuilder15PipelineElementEEEEZZ23getHelloWorldPluginInfovENK3$_0clERS9_EUlS1_S7_SB_E_E10_M_managerERSt9_Any_dataRKSH_St18_Manager_operation", ptr %14, align 8, !dbg !4339
  br label %15, !dbg !4340

15:                                               ; preds = %10, %2
  ret void, !dbg !4341
}

; Function Attrs: mustprogress noinline nounwind optnone uwtable
define linkonce_odr dso_local void @_ZNSt8functionIFbN4llvm9StringRefERNS0_11PassManagerINS0_8FunctionENS0_15AnalysisManagerIS3_JEEEJEEENS0_8ArrayRefINS0_11PassBuilder15PipelineElementEEEEED2Ev(ptr noundef nonnull align 8 dereferenceable(32) %0) unnamed_addr #0 comdat align 2 !dbg !4342 {
  %2 = alloca ptr, align 8
  store ptr %0, ptr %2, align 8
    #dbg_declare(ptr %2, !4344, !DIExpression(), !4345)
  %3 = load ptr, ptr %2, align 8
  call void @_ZNSt14_Function_baseD2Ev(ptr noundef nonnull align 8 dereferenceable(24) %3) #12, !dbg !4346
  ret void, !dbg !4348
}

; Function Attrs: mustprogress noinline nounwind optnone uwtable
define linkonce_odr dso_local void @_ZN4llvm23SmallVectorTemplateBaseISt8functionIFbNS_9StringRefERNS_11PassManagerINS_8FunctionENS_15AnalysisManagerIS4_JEEEJEEENS_8ArrayRefINS_11PassBuilder15PipelineElementEEEEELb0EE9push_backERKSE_(ptr noundef nonnull align 8 dereferenceable(16) %0, ptr noundef nonnull align 8 dereferenceable(32) %1) #0 comdat align 2 !dbg !4349 {
  %3 = alloca ptr, align 8
  %4 = alloca ptr, align 8
  %5 = alloca ptr, align 8
  store ptr %0, ptr %3, align 8
    #dbg_declare(ptr %3, !4355, !DIExpression(), !4357)
  store ptr %1, ptr %4, align 8
    #dbg_declare(ptr %4, !4358, !DIExpression(), !4359)
  %6 = load ptr, ptr %3, align 8
    #dbg_declare(ptr %5, !4360, !DIExpression(), !4361)
  %7 = load ptr, ptr %4, align 8, !dbg !4362
  %8 = call noundef ptr @_ZN4llvm23SmallVectorTemplateBaseISt8functionIFbNS_9StringRefERNS_11PassManagerINS_8FunctionENS_15AnalysisManagerIS4_JEEEJEEENS_8ArrayRefINS_11PassBuilder15PipelineElementEEEEELb0EE28reserveForParamAndGetAddressERKSE_m(ptr noundef nonnull align 8 dereferenceable(16) %6, ptr noundef nonnull align 8 dereferenceable(32) %7, i64 noundef 1), !dbg !4363
  store ptr %8, ptr %5, align 8, !dbg !4361
  %9 = call noundef ptr @_ZN4llvm25SmallVectorTemplateCommonISt8functionIFbNS_9StringRefERNS_11PassManagerINS_8FunctionENS_15AnalysisManagerIS4_JEEEJEEENS_8ArrayRefINS_11PassBuilder15PipelineElementEEEEEvE3endEv(ptr noundef nonnull align 8 dereferenceable(16) %6), !dbg !4364
  %10 = load ptr, ptr %5, align 8, !dbg !4365
  call void @_ZNSt8functionIFbN4llvm9StringRefERNS0_11PassManagerINS0_8FunctionENS0_15AnalysisManagerIS3_JEEEJEEENS0_8ArrayRefINS0_11PassBuilder15PipelineElementEEEEEC2ERKSD_(ptr noundef nonnull align 8 dereferenceable(32) %9, ptr noundef nonnull align 8 dereferenceable(32) %10), !dbg !4366
  %11 = call noundef i64 @_ZNK4llvm15SmallVectorBaseIjE4sizeEv(ptr noundef nonnull align 8 dereferenceable(16) %6), !dbg !4367
  %12 = add i64 %11, 1, !dbg !4368
  call void @_ZN4llvm15SmallVectorBaseIjE8set_sizeEm(ptr noundef nonnull align 8 dereferenceable(16) %6, i64 noundef %12), !dbg !4369
  ret void, !dbg !4370
}

; Function Attrs: mustprogress noinline nounwind optnone uwtable
define linkonce_odr dso_local noundef ptr @_ZN4llvm23SmallVectorTemplateBaseISt8functionIFbNS_9StringRefERNS_11PassManagerINS_8FunctionENS_15AnalysisManagerIS4_JEEEJEEENS_8ArrayRefINS_11PassBuilder15PipelineElementEEEEELb0EE28reserveForParamAndGetAddressERKSE_m(ptr noundef nonnull align 8 dereferenceable(16) %0, ptr noundef nonnull align 8 dereferenceable(32) %1, i64 noundef %2) #0 comdat align 2 !dbg !4371 {
  %4 = alloca ptr, align 8
  %5 = alloca ptr, align 8
  %6 = alloca i64, align 8
  store ptr %0, ptr %4, align 8
    #dbg_declare(ptr %4, !4375, !DIExpression(), !4376)
  store ptr %1, ptr %5, align 8
    #dbg_declare(ptr %5, !4377, !DIExpression(), !4378)
  store i64 %2, ptr %6, align 8
    #dbg_declare(ptr %6, !4379, !DIExpression(), !4380)
  %7 = load ptr, ptr %4, align 8
  %8 = load ptr, ptr %5, align 8, !dbg !4381
  %9 = load i64, ptr %6, align 8, !dbg !4382
  %10 = call noundef ptr @_ZN4llvm25SmallVectorTemplateCommonISt8functionIFbNS_9StringRefERNS_11PassManagerINS_8FunctionENS_15AnalysisManagerIS4_JEEEJEEENS_8ArrayRefINS_11PassBuilder15PipelineElementEEEEEvE32reserveForParamAndGetAddressImplINS_23SmallVectorTemplateBaseISE_Lb0EEEEEPKSE_PT_RSJ_m(ptr noundef %7, ptr noundef nonnull align 8 dereferenceable(32) %8, i64 noundef %9), !dbg !4383
  ret ptr %10, !dbg !4384
}

; Function Attrs: mustprogress noinline nounwind optnone uwtable
define linkonce_odr dso_local noundef ptr @_ZN4llvm25SmallVectorTemplateCommonISt8functionIFbNS_9StringRefERNS_11PassManagerINS_8FunctionENS_15AnalysisManagerIS4_JEEEJEEENS_8ArrayRefINS_11PassBuilder15PipelineElementEEEEEvE3endEv(ptr noundef nonnull align 8 dereferenceable(16) %0) #0 comdat align 2 !dbg !4385 {
  %2 = alloca ptr, align 8
  store ptr %0, ptr %2, align 8
    #dbg_declare(ptr %2, !4390, !DIExpression(), !4392)
  %3 = load ptr, ptr %2, align 8
  %4 = call noundef ptr @_ZN4llvm25SmallVectorTemplateCommonISt8functionIFbNS_9StringRefERNS_11PassManagerINS_8FunctionENS_15AnalysisManagerIS4_JEEEJEEENS_8ArrayRefINS_11PassBuilder15PipelineElementEEEEEvE5beginEv(ptr noundef nonnull align 8 dereferenceable(16) %3), !dbg !4393
  %5 = call noundef i64 @_ZNK4llvm15SmallVectorBaseIjE4sizeEv(ptr noundef nonnull align 8 dereferenceable(16) %3), !dbg !4394
  %6 = getelementptr inbounds %"class.std::function", ptr %4, i64 %5, !dbg !4395
  ret ptr %6, !dbg !4396
}

; Function Attrs: mustprogress noinline nounwind optnone uwtable
define linkonce_odr dso_local void @_ZNSt8functionIFbN4llvm9StringRefERNS0_11PassManagerINS0_8FunctionENS0_15AnalysisManagerIS3_JEEEJEEENS0_8ArrayRefINS0_11PassBuilder15PipelineElementEEEEEC2ERKSD_(ptr noundef nonnull align 8 dereferenceable(32) %0, ptr noundef nonnull align 8 dereferenceable(32) %1) unnamed_addr #0 comdat align 2 !dbg !4397 {
  %3 = alloca ptr, align 8
  %4 = alloca ptr, align 8
  store ptr %0, ptr %3, align 8
    #dbg_declare(ptr %3, !4398, !DIExpression(), !4399)
  store ptr %1, ptr %4, align 8
    #dbg_declare(ptr %4, !4400, !DIExpression(), !4401)
  %5 = load ptr, ptr %3, align 8
  %6 = getelementptr inbounds i8, ptr %5, i64 0, !dbg !4402
  call void @llvm.memset.p0.i64(ptr align 8 %6, i8 0, i64 24, i1 false), !dbg !4402
  call void @_ZNSt14_Function_baseC2Ev(ptr noundef nonnull align 8 dereferenceable(24) %5) #12, !dbg !4402
  %7 = getelementptr inbounds %"class.std::function", ptr %5, i32 0, i32 1, !dbg !4403
  store ptr null, ptr %7, align 8, !dbg !4403
  %8 = load ptr, ptr %4, align 8, !dbg !4404
  %9 = call noundef zeroext i1 @_ZNKSt8functionIFbN4llvm9StringRefERNS0_11PassManagerINS0_8FunctionENS0_15AnalysisManagerIS3_JEEEJEEENS0_8ArrayRefINS0_11PassBuilder15PipelineElementEEEEEcvbEv(ptr noundef nonnull align 8 dereferenceable(32) %8) #12, !dbg !4404
  br i1 %9, label %10, label %26, !dbg !4407

10:                                               ; preds = %2
  %11 = load ptr, ptr %4, align 8, !dbg !4408
  %12 = getelementptr inbounds %"class.std::_Function_base", ptr %11, i32 0, i32 1, !dbg !4410
  %13 = load ptr, ptr %12, align 8, !dbg !4410
  %14 = getelementptr inbounds %"class.std::_Function_base", ptr %5, i32 0, i32 0, !dbg !4411
  %15 = load ptr, ptr %4, align 8, !dbg !4412
  %16 = getelementptr inbounds %"class.std::_Function_base", ptr %15, i32 0, i32 0, !dbg !4413
  %17 = call noundef zeroext i1 %13(ptr noundef nonnull align 8 dereferenceable(16) %14, ptr noundef nonnull align 8 dereferenceable(16) %16, i32 noundef 2), !dbg !4408
  %18 = load ptr, ptr %4, align 8, !dbg !4414
  %19 = getelementptr inbounds %"class.std::function", ptr %18, i32 0, i32 1, !dbg !4415
  %20 = load ptr, ptr %19, align 8, !dbg !4415
  %21 = getelementptr inbounds %"class.std::function", ptr %5, i32 0, i32 1, !dbg !4416
  store ptr %20, ptr %21, align 8, !dbg !4417
  %22 = load ptr, ptr %4, align 8, !dbg !4418
  %23 = getelementptr inbounds %"class.std::_Function_base", ptr %22, i32 0, i32 1, !dbg !4419
  %24 = load ptr, ptr %23, align 8, !dbg !4419
  %25 = getelementptr inbounds %"class.std::_Function_base", ptr %5, i32 0, i32 1, !dbg !4420
  store ptr %24, ptr %25, align 8, !dbg !4421
  br label %26, !dbg !4422

26:                                               ; preds = %10, %2
  ret void, !dbg !4423
}

declare void @_ZN4llvm15SmallVectorBaseIjE8set_sizeEm(ptr noundef nonnull align 8 dereferenceable(16), i64 noundef) #1

declare noundef i64 @_ZNK4llvm15SmallVectorBaseIjE4sizeEv(ptr noundef nonnull align 8 dereferenceable(16)) #1

; Function Attrs: mustprogress noinline nounwind optnone uwtable
define linkonce_odr dso_local noundef ptr @_ZN4llvm25SmallVectorTemplateCommonISt8functionIFbNS_9StringRefERNS_11PassManagerINS_8FunctionENS_15AnalysisManagerIS4_JEEEJEEENS_8ArrayRefINS_11PassBuilder15PipelineElementEEEEEvE32reserveForParamAndGetAddressImplINS_23SmallVectorTemplateBaseISE_Lb0EEEEEPKSE_PT_RSJ_m(ptr noundef %0, ptr noundef nonnull align 8 dereferenceable(32) %1, i64 noundef %2) #0 comdat align 2 !dbg !4424 {
  %4 = alloca ptr, align 8
  %5 = alloca ptr, align 8
  %6 = alloca ptr, align 8
  %7 = alloca i64, align 8
  %8 = alloca i64, align 8
  %9 = alloca i8, align 1
  %10 = alloca i64, align 8
  store ptr %0, ptr %5, align 8
    #dbg_declare(ptr %5, !4430, !DIExpression(), !4431)
  store ptr %1, ptr %6, align 8
    #dbg_declare(ptr %6, !4432, !DIExpression(), !4433)
  store i64 %2, ptr %7, align 8
    #dbg_declare(ptr %7, !4434, !DIExpression(), !4435)
    #dbg_declare(ptr %8, !4436, !DIExpression(), !4437)
  %11 = load ptr, ptr %5, align 8, !dbg !4438
  %12 = call noundef i64 @_ZNK4llvm15SmallVectorBaseIjE4sizeEv(ptr noundef nonnull align 8 dereferenceable(16) %11), !dbg !4439
  %13 = load i64, ptr %7, align 8, !dbg !4440
  %14 = add i64 %12, %13, !dbg !4441
  store i64 %14, ptr %8, align 8, !dbg !4437
  %15 = load i64, ptr %8, align 8, !dbg !4442
  %16 = load ptr, ptr %5, align 8, !dbg !4442
  %17 = call noundef i64 @_ZNK4llvm15SmallVectorBaseIjE8capacityEv(ptr noundef nonnull align 8 dereferenceable(16) %16), !dbg !4442
  %18 = icmp ule i64 %15, %17, !dbg !4442
  br i1 %18, label %19, label %21, !dbg !4444

19:                                               ; preds = %3
  %20 = load ptr, ptr %6, align 8, !dbg !4445
  store ptr %20, ptr %4, align 8, !dbg !4446
  br label %47, !dbg !4446

21:                                               ; preds = %3
    #dbg_declare(ptr %9, !4447, !DIExpression(), !4448)
  store i8 0, ptr %9, align 1, !dbg !4448
    #dbg_declare(ptr %10, !4449, !DIExpression(), !4450)
  store i64 -1, ptr %10, align 8, !dbg !4450
  %22 = load ptr, ptr %5, align 8, !dbg !4451
  %23 = load ptr, ptr %6, align 8, !dbg !4451
  %24 = call noundef zeroext i1 @_ZNK4llvm25SmallVectorTemplateCommonISt8functionIFbNS_9StringRefERNS_11PassManagerINS_8FunctionENS_15AnalysisManagerIS4_JEEEJEEENS_8ArrayRefINS_11PassBuilder15PipelineElementEEEEEvE20isReferenceToStorageEPKv(ptr noundef nonnull align 8 dereferenceable(16) %22, ptr noundef %23), !dbg !4451
  br i1 %24, label %25, label %33, !dbg !4455

25:                                               ; preds = %21
  store i8 1, ptr %9, align 1, !dbg !4456
  %26 = load ptr, ptr %6, align 8, !dbg !4458
  %27 = load ptr, ptr %5, align 8, !dbg !4459
  %28 = call noundef ptr @_ZN4llvm25SmallVectorTemplateCommonISt8functionIFbNS_9StringRefERNS_11PassManagerINS_8FunctionENS_15AnalysisManagerIS4_JEEEJEEENS_8ArrayRefINS_11PassBuilder15PipelineElementEEEEEvE5beginEv(ptr noundef nonnull align 8 dereferenceable(16) %27), !dbg !4460
  %29 = ptrtoint ptr %26 to i64, !dbg !4461
  %30 = ptrtoint ptr %28 to i64, !dbg !4461
  %31 = sub i64 %29, %30, !dbg !4461
  %32 = sdiv exact i64 %31, 32, !dbg !4461
  store i64 %32, ptr %10, align 8, !dbg !4462
  br label %33, !dbg !4463

33:                                               ; preds = %25, %21
  %34 = load ptr, ptr %5, align 8, !dbg !4464
  %35 = load i64, ptr %8, align 8, !dbg !4465
  call void @_ZN4llvm23SmallVectorTemplateBaseISt8functionIFbNS_9StringRefERNS_11PassManagerINS_8FunctionENS_15AnalysisManagerIS4_JEEEJEEENS_8ArrayRefINS_11PassBuilder15PipelineElementEEEEELb0EE4growEm(ptr noundef nonnull align 8 dereferenceable(16) %34, i64 noundef %35), !dbg !4466
  %36 = load i8, ptr %9, align 1, !dbg !4467
  %37 = trunc i8 %36 to i1, !dbg !4467
  br i1 %37, label %38, label %43, !dbg !4467

38:                                               ; preds = %33
  %39 = load ptr, ptr %5, align 8, !dbg !4468
  %40 = call noundef ptr @_ZN4llvm25SmallVectorTemplateCommonISt8functionIFbNS_9StringRefERNS_11PassManagerINS_8FunctionENS_15AnalysisManagerIS4_JEEEJEEENS_8ArrayRefINS_11PassBuilder15PipelineElementEEEEEvE5beginEv(ptr noundef nonnull align 8 dereferenceable(16) %39), !dbg !4469
  %41 = load i64, ptr %10, align 8, !dbg !4470
  %42 = getelementptr inbounds %"class.std::function", ptr %40, i64 %41, !dbg !4471
  br label %45, !dbg !4467

43:                                               ; preds = %33
  %44 = load ptr, ptr %6, align 8, !dbg !4472
  br label %45, !dbg !4467

45:                                               ; preds = %43, %38
  %46 = phi ptr [ %42, %38 ], [ %44, %43 ], !dbg !4467
  store ptr %46, ptr %4, align 8, !dbg !4473
  br label %47, !dbg !4473

47:                                               ; preds = %45, %19
  %48 = load ptr, ptr %4, align 8, !dbg !4474
  ret ptr %48, !dbg !4474
}

declare noundef i64 @_ZNK4llvm15SmallVectorBaseIjE8capacityEv(ptr noundef nonnull align 8 dereferenceable(16)) #1

; Function Attrs: mustprogress noinline nounwind optnone uwtable
define linkonce_odr dso_local noundef zeroext i1 @_ZNK4llvm25SmallVectorTemplateCommonISt8functionIFbNS_9StringRefERNS_11PassManagerINS_8FunctionENS_15AnalysisManagerIS4_JEEEJEEENS_8ArrayRefINS_11PassBuilder15PipelineElementEEEEEvE20isReferenceToStorageEPKv(ptr noundef nonnull align 8 dereferenceable(16) %0, ptr noundef %1) #0 comdat align 2 !dbg !4475 {
  %3 = alloca ptr, align 8
  %4 = alloca ptr, align 8
  store ptr %0, ptr %3, align 8
    #dbg_declare(ptr %3, !4481, !DIExpression(), !4483)
  store ptr %1, ptr %4, align 8
    #dbg_declare(ptr %4, !4484, !DIExpression(), !4485)
  %5 = load ptr, ptr %3, align 8
  %6 = load ptr, ptr %4, align 8, !dbg !4486
  %7 = call noundef ptr @_ZNK4llvm25SmallVectorTemplateCommonISt8functionIFbNS_9StringRefERNS_11PassManagerINS_8FunctionENS_15AnalysisManagerIS4_JEEEJEEENS_8ArrayRefINS_11PassBuilder15PipelineElementEEEEEvE5beginEv(ptr noundef nonnull align 8 dereferenceable(16) %5), !dbg !4487
  %8 = call noundef ptr @_ZNK4llvm25SmallVectorTemplateCommonISt8functionIFbNS_9StringRefERNS_11PassManagerINS_8FunctionENS_15AnalysisManagerIS4_JEEEJEEENS_8ArrayRefINS_11PassBuilder15PipelineElementEEEEEvE3endEv(ptr noundef nonnull align 8 dereferenceable(16) %5), !dbg !4488
  %9 = call noundef zeroext i1 @_ZNK4llvm25SmallVectorTemplateCommonISt8functionIFbNS_9StringRefERNS_11PassManagerINS_8FunctionENS_15AnalysisManagerIS4_JEEEJEEENS_8ArrayRefINS_11PassBuilder15PipelineElementEEEEEvE18isReferenceToRangeEPKvSH_SH_(ptr noundef nonnull align 8 dereferenceable(16) %5, ptr noundef %6, ptr noundef %7, ptr noundef %8), !dbg !4489
  ret i1 %9, !dbg !4490
}

; Function Attrs: mustprogress noinline nounwind optnone uwtable
define linkonce_odr dso_local noundef ptr @_ZN4llvm25SmallVectorTemplateCommonISt8functionIFbNS_9StringRefERNS_11PassManagerINS_8FunctionENS_15AnalysisManagerIS4_JEEEJEEENS_8ArrayRefINS_11PassBuilder15PipelineElementEEEEEvE5beginEv(ptr noundef nonnull align 8 dereferenceable(16) %0) #0 comdat align 2 !dbg !4491 {
  %2 = alloca ptr, align 8
  store ptr %0, ptr %2, align 8
    #dbg_declare(ptr %2, !4493, !DIExpression(), !4494)
  %3 = load ptr, ptr %2, align 8
  %4 = getelementptr inbounds %"class.llvm::SmallVectorBase", ptr %3, i32 0, i32 0, !dbg !4495
  %5 = load ptr, ptr %4, align 8, !dbg !4495
  ret ptr %5, !dbg !4496
}

; Function Attrs: mustprogress noinline nounwind optnone uwtable
define linkonce_odr dso_local void @_ZN4llvm23SmallVectorTemplateBaseISt8functionIFbNS_9StringRefERNS_11PassManagerINS_8FunctionENS_15AnalysisManagerIS4_JEEEJEEENS_8ArrayRefINS_11PassBuilder15PipelineElementEEEEELb0EE4growEm(ptr noundef nonnull align 8 dereferenceable(16) %0, i64 noundef %1) #0 comdat align 2 !dbg !4497 {
  %3 = alloca ptr, align 8
  %4 = alloca i64, align 8
  %5 = alloca i64, align 8
  %6 = alloca ptr, align 8
  store ptr %0, ptr %3, align 8
    #dbg_declare(ptr %3, !4501, !DIExpression(), !4502)
  store i64 %1, ptr %4, align 8
    #dbg_declare(ptr %4, !4503, !DIExpression(), !4504)
  %7 = load ptr, ptr %3, align 8
    #dbg_declare(ptr %5, !4505, !DIExpression(), !4506)
    #dbg_declare(ptr %6, !4507, !DIExpression(), !4508)
  %8 = load i64, ptr %4, align 8, !dbg !4509
  %9 = call noundef ptr @_ZN4llvm23SmallVectorTemplateBaseISt8functionIFbNS_9StringRefERNS_11PassManagerINS_8FunctionENS_15AnalysisManagerIS4_JEEEJEEENS_8ArrayRefINS_11PassBuilder15PipelineElementEEEEELb0EE13mallocForGrowEmRm(ptr noundef nonnull align 8 dereferenceable(16) %7, i64 noundef %8, ptr noundef nonnull align 8 dereferenceable(8) %5), !dbg !4510
  store ptr %9, ptr %6, align 8, !dbg !4508
  %10 = load ptr, ptr %6, align 8, !dbg !4511
  call void @_ZN4llvm23SmallVectorTemplateBaseISt8functionIFbNS_9StringRefERNS_11PassManagerINS_8FunctionENS_15AnalysisManagerIS4_JEEEJEEENS_8ArrayRefINS_11PassBuilder15PipelineElementEEEEELb0EE19moveElementsForGrowEPSE_(ptr noundef nonnull align 8 dereferenceable(16) %7, ptr noundef %10), !dbg !4512
  %11 = load ptr, ptr %6, align 8, !dbg !4513
  %12 = load i64, ptr %5, align 8, !dbg !4514
  call void @_ZN4llvm23SmallVectorTemplateBaseISt8functionIFbNS_9StringRefERNS_11PassManagerINS_8FunctionENS_15AnalysisManagerIS4_JEEEJEEENS_8ArrayRefINS_11PassBuilder15PipelineElementEEEEELb0EE21takeAllocationForGrowEPSE_m(ptr noundef nonnull align 8 dereferenceable(16) %7, ptr noundef %11, i64 noundef %12), !dbg !4515
  ret void, !dbg !4516
}

; Function Attrs: mustprogress noinline nounwind optnone uwtable
define linkonce_odr dso_local noundef zeroext i1 @_ZNK4llvm25SmallVectorTemplateCommonISt8functionIFbNS_9StringRefERNS_11PassManagerINS_8FunctionENS_15AnalysisManagerIS4_JEEEJEEENS_8ArrayRefINS_11PassBuilder15PipelineElementEEEEEvE18isReferenceToRangeEPKvSH_SH_(ptr noundef nonnull align 8 dereferenceable(16) %0, ptr noundef %1, ptr noundef %2, ptr noundef %3) #0 comdat align 2 !dbg !4517 {
  %5 = alloca ptr, align 8
  %6 = alloca ptr, align 8
  %7 = alloca ptr, align 8
  %8 = alloca ptr, align 8
  %9 = alloca %"struct.std::less", align 1
  store ptr %0, ptr %5, align 8
    #dbg_declare(ptr %5, !4521, !DIExpression(), !4522)
  store ptr %1, ptr %6, align 8
    #dbg_declare(ptr %6, !4523, !DIExpression(), !4524)
  store ptr %2, ptr %7, align 8
    #dbg_declare(ptr %7, !4525, !DIExpression(), !4526)
  store ptr %3, ptr %8, align 8
    #dbg_declare(ptr %8, !4527, !DIExpression(), !4528)
  %10 = load ptr, ptr %5, align 8
    #dbg_declare(ptr %9, !4529, !DIExpression(), !4534)
  %11 = load ptr, ptr %6, align 8, !dbg !4535
  %12 = load ptr, ptr %7, align 8, !dbg !4536
  %13 = call noundef zeroext i1 @_ZNKSt4lessIvEclIKvS2_EEbPT_PT0_(ptr noundef nonnull align 1 dereferenceable(1) %9, ptr noundef %11, ptr noundef %12) #12, !dbg !4537
  br i1 %13, label %18, label %14, !dbg !4538

14:                                               ; preds = %4
  %15 = load ptr, ptr %6, align 8, !dbg !4539
  %16 = load ptr, ptr %8, align 8, !dbg !4540
  %17 = call noundef zeroext i1 @_ZNKSt4lessIvEclIKvS2_EEbPT_PT0_(ptr noundef nonnull align 1 dereferenceable(1) %9, ptr noundef %15, ptr noundef %16) #12, !dbg !4541
  br label %18

18:                                               ; preds = %14, %4
  %19 = phi i1 [ false, %4 ], [ %17, %14 ], !dbg !4522
  ret i1 %19, !dbg !4542
}

; Function Attrs: mustprogress noinline nounwind optnone uwtable
define linkonce_odr dso_local noundef ptr @_ZNK4llvm25SmallVectorTemplateCommonISt8functionIFbNS_9StringRefERNS_11PassManagerINS_8FunctionENS_15AnalysisManagerIS4_JEEEJEEENS_8ArrayRefINS_11PassBuilder15PipelineElementEEEEEvE5beginEv(ptr noundef nonnull align 8 dereferenceable(16) %0) #0 comdat align 2 !dbg !4543 {
  %2 = alloca ptr, align 8
  store ptr %0, ptr %2, align 8
    #dbg_declare(ptr %2, !4547, !DIExpression(), !4548)
  %3 = load ptr, ptr %2, align 8
  %4 = getelementptr inbounds %"class.llvm::SmallVectorBase", ptr %3, i32 0, i32 0, !dbg !4549
  %5 = load ptr, ptr %4, align 8, !dbg !4549
  ret ptr %5, !dbg !4550
}

; Function Attrs: mustprogress noinline nounwind optnone uwtable
define linkonce_odr dso_local noundef ptr @_ZNK4llvm25SmallVectorTemplateCommonISt8functionIFbNS_9StringRefERNS_11PassManagerINS_8FunctionENS_15AnalysisManagerIS4_JEEEJEEENS_8ArrayRefINS_11PassBuilder15PipelineElementEEEEEvE3endEv(ptr noundef nonnull align 8 dereferenceable(16) %0) #0 comdat align 2 !dbg !4551 {
  %2 = alloca ptr, align 8
  store ptr %0, ptr %2, align 8
    #dbg_declare(ptr %2, !4553, !DIExpression(), !4554)
  %3 = load ptr, ptr %2, align 8
  %4 = call noundef ptr @_ZNK4llvm25SmallVectorTemplateCommonISt8functionIFbNS_9StringRefERNS_11PassManagerINS_8FunctionENS_15AnalysisManagerIS4_JEEEJEEENS_8ArrayRefINS_11PassBuilder15PipelineElementEEEEEvE5beginEv(ptr noundef nonnull align 8 dereferenceable(16) %3), !dbg !4555
  %5 = call noundef i64 @_ZNK4llvm15SmallVectorBaseIjE4sizeEv(ptr noundef nonnull align 8 dereferenceable(16) %3), !dbg !4556
  %6 = getelementptr inbounds %"class.std::function", ptr %4, i64 %5, !dbg !4557
  ret ptr %6, !dbg !4558
}

; Function Attrs: mustprogress noinline nounwind optnone uwtable
define linkonce_odr dso_local noundef zeroext i1 @_ZNKSt4lessIvEclIKvS2_EEbPT_PT0_(ptr noundef nonnull align 1 dereferenceable(1) %0, ptr noundef %1, ptr noundef %2) #0 comdat align 2 !dbg !4559 {
  %4 = alloca ptr, align 8
  %5 = alloca ptr, align 8
  %6 = alloca ptr, align 8
  %7 = alloca %"struct.std::less.84", align 1
  store ptr %0, ptr %4, align 8
    #dbg_declare(ptr %4, !4568, !DIExpression(), !4570)
  store ptr %1, ptr %5, align 8
    #dbg_declare(ptr %5, !4571, !DIExpression(), !4572)
  store ptr %2, ptr %6, align 8
    #dbg_declare(ptr %6, !4573, !DIExpression(), !4574)
  %8 = load ptr, ptr %4, align 8
  %9 = load ptr, ptr %5, align 8, !dbg !4575
  %10 = load ptr, ptr %6, align 8, !dbg !4576
  %11 = call noundef zeroext i1 @_ZNKSt4lessIPKvEclES1_S1_(ptr noundef nonnull align 1 dereferenceable(1) %7, ptr noundef %9, ptr noundef %10) #12, !dbg !4577
  ret i1 %11, !dbg !4578
}

; Function Attrs: mustprogress noinline nounwind optnone uwtable
define linkonce_odr dso_local noundef zeroext i1 @_ZNKSt4lessIPKvEclES1_S1_(ptr noundef nonnull align 1 dereferenceable(1) %0, ptr noundef %1, ptr noundef %2) #0 comdat align 2 !dbg !4579 {
  %4 = alloca ptr, align 8
  %5 = alloca ptr, align 8
  %6 = alloca ptr, align 8
  store ptr %0, ptr %4, align 8
    #dbg_declare(ptr %4, !4595, !DIExpression(), !4597)
  store ptr %1, ptr %5, align 8
    #dbg_declare(ptr %5, !4598, !DIExpression(), !4599)
  store ptr %2, ptr %6, align 8
    #dbg_declare(ptr %6, !4600, !DIExpression(), !4601)
  %7 = load ptr, ptr %4, align 8
  %8 = load ptr, ptr %5, align 8, !dbg !4602
  %9 = ptrtoint ptr %8 to i64, !dbg !4603
  %10 = load ptr, ptr %6, align 8, !dbg !4604
  %11 = ptrtoint ptr %10 to i64, !dbg !4605
  %12 = icmp ult i64 %9, %11, !dbg !4606
  ret i1 %12, !dbg !4607
}

; Function Attrs: mustprogress noinline nounwind optnone uwtable
define linkonce_odr dso_local noundef ptr @_ZN4llvm23SmallVectorTemplateBaseISt8functionIFbNS_9StringRefERNS_11PassManagerINS_8FunctionENS_15AnalysisManagerIS4_JEEEJEEENS_8ArrayRefINS_11PassBuilder15PipelineElementEEEEELb0EE13mallocForGrowEmRm(ptr noundef nonnull align 8 dereferenceable(16) %0, i64 noundef %1, ptr noundef nonnull align 8 dereferenceable(8) %2) #0 comdat align 2 !dbg !4608 {
  %4 = alloca ptr, align 8
  %5 = alloca i64, align 8
  %6 = alloca ptr, align 8
  store ptr %0, ptr %4, align 8
    #dbg_declare(ptr %4, !4613, !DIExpression(), !4614)
  store i64 %1, ptr %5, align 8
    #dbg_declare(ptr %5, !4615, !DIExpression(), !4616)
  store ptr %2, ptr %6, align 8
    #dbg_declare(ptr %6, !4617, !DIExpression(), !4618)
  %7 = load ptr, ptr %4, align 8
  %8 = call noundef ptr @_ZNK4llvm25SmallVectorTemplateCommonISt8functionIFbNS_9StringRefERNS_11PassManagerINS_8FunctionENS_15AnalysisManagerIS4_JEEEJEEENS_8ArrayRefINS_11PassBuilder15PipelineElementEEEEEvE10getFirstElEv(ptr noundef nonnull align 8 dereferenceable(16) %7), !dbg !4619
  %9 = load i64, ptr %5, align 8, !dbg !4620
  %10 = load ptr, ptr %6, align 8, !dbg !4621
  %11 = call noundef ptr @_ZN4llvm15SmallVectorBaseIjE13mallocForGrowEPvmmRm(ptr noundef nonnull align 8 dereferenceable(16) %7, ptr noundef %8, i64 noundef %9, i64 noundef 32, ptr noundef nonnull align 8 dereferenceable(8) %10), !dbg !4622
  ret ptr %11, !dbg !4623
}

; Function Attrs: mustprogress noinline nounwind optnone uwtable
define linkonce_odr dso_local void @_ZN4llvm23SmallVectorTemplateBaseISt8functionIFbNS_9StringRefERNS_11PassManagerINS_8FunctionENS_15AnalysisManagerIS4_JEEEJEEENS_8ArrayRefINS_11PassBuilder15PipelineElementEEEEELb0EE19moveElementsForGrowEPSE_(ptr noundef nonnull align 8 dereferenceable(16) %0, ptr noundef %1) #0 comdat align 2 !dbg !4624 {
  %3 = alloca ptr, align 8
  %4 = alloca ptr, align 8
  store ptr %0, ptr %3, align 8
    #dbg_declare(ptr %3, !4628, !DIExpression(), !4629)
  store ptr %1, ptr %4, align 8
    #dbg_declare(ptr %4, !4630, !DIExpression(), !4631)
  %5 = load ptr, ptr %3, align 8
  %6 = call noundef ptr @_ZN4llvm25SmallVectorTemplateCommonISt8functionIFbNS_9StringRefERNS_11PassManagerINS_8FunctionENS_15AnalysisManagerIS4_JEEEJEEENS_8ArrayRefINS_11PassBuilder15PipelineElementEEEEEvE5beginEv(ptr noundef nonnull align 8 dereferenceable(16) %5), !dbg !4632
  %7 = call noundef ptr @_ZN4llvm25SmallVectorTemplateCommonISt8functionIFbNS_9StringRefERNS_11PassManagerINS_8FunctionENS_15AnalysisManagerIS4_JEEEJEEENS_8ArrayRefINS_11PassBuilder15PipelineElementEEEEEvE3endEv(ptr noundef nonnull align 8 dereferenceable(16) %5), !dbg !4633
  %8 = load ptr, ptr %4, align 8, !dbg !4634
  call void @_ZN4llvm23SmallVectorTemplateBaseISt8functionIFbNS_9StringRefERNS_11PassManagerINS_8FunctionENS_15AnalysisManagerIS4_JEEEJEEENS_8ArrayRefINS_11PassBuilder15PipelineElementEEEEELb0EE18uninitialized_moveIPSE_SH_EEvT_SI_T0_(ptr noundef %6, ptr noundef %7, ptr noundef %8), !dbg !4635
  %9 = call noundef ptr @_ZN4llvm25SmallVectorTemplateCommonISt8functionIFbNS_9StringRefERNS_11PassManagerINS_8FunctionENS_15AnalysisManagerIS4_JEEEJEEENS_8ArrayRefINS_11PassBuilder15PipelineElementEEEEEvE5beginEv(ptr noundef nonnull align 8 dereferenceable(16) %5), !dbg !4636
  %10 = call noundef ptr @_ZN4llvm25SmallVectorTemplateCommonISt8functionIFbNS_9StringRefERNS_11PassManagerINS_8FunctionENS_15AnalysisManagerIS4_JEEEJEEENS_8ArrayRefINS_11PassBuilder15PipelineElementEEEEEvE3endEv(ptr noundef nonnull align 8 dereferenceable(16) %5), !dbg !4637
  call void @_ZN4llvm23SmallVectorTemplateBaseISt8functionIFbNS_9StringRefERNS_11PassManagerINS_8FunctionENS_15AnalysisManagerIS4_JEEEJEEENS_8ArrayRefINS_11PassBuilder15PipelineElementEEEEELb0EE13destroy_rangeEPSE_SG_(ptr noundef %9, ptr noundef %10), !dbg !4638
  ret void, !dbg !4639
}

; Function Attrs: mustprogress noinline nounwind optnone uwtable
define linkonce_odr dso_local void @_ZN4llvm23SmallVectorTemplateBaseISt8functionIFbNS_9StringRefERNS_11PassManagerINS_8FunctionENS_15AnalysisManagerIS4_JEEEJEEENS_8ArrayRefINS_11PassBuilder15PipelineElementEEEEELb0EE21takeAllocationForGrowEPSE_m(ptr noundef nonnull align 8 dereferenceable(16) %0, ptr noundef %1, i64 noundef %2) #0 comdat align 2 !dbg !4640 {
  %4 = alloca ptr, align 8
  %5 = alloca ptr, align 8
  %6 = alloca i64, align 8
  store ptr %0, ptr %4, align 8
    #dbg_declare(ptr %4, !4644, !DIExpression(), !4645)
  store ptr %1, ptr %5, align 8
    #dbg_declare(ptr %5, !4646, !DIExpression(), !4647)
  store i64 %2, ptr %6, align 8
    #dbg_declare(ptr %6, !4648, !DIExpression(), !4649)
  %7 = load ptr, ptr %4, align 8
  %8 = call noundef zeroext i1 @_ZNK4llvm25SmallVectorTemplateCommonISt8functionIFbNS_9StringRefERNS_11PassManagerINS_8FunctionENS_15AnalysisManagerIS4_JEEEJEEENS_8ArrayRefINS_11PassBuilder15PipelineElementEEEEEvE7isSmallEv(ptr noundef nonnull align 8 dereferenceable(16) %7), !dbg !4650
  br i1 %8, label %11, label %9, !dbg !4652

9:                                                ; preds = %3
  %10 = call noundef ptr @_ZN4llvm25SmallVectorTemplateCommonISt8functionIFbNS_9StringRefERNS_11PassManagerINS_8FunctionENS_15AnalysisManagerIS4_JEEEJEEENS_8ArrayRefINS_11PassBuilder15PipelineElementEEEEEvE5beginEv(ptr noundef nonnull align 8 dereferenceable(16) %7), !dbg !4653
  call void @free(ptr noundef %10) #12, !dbg !4654
  br label %11, !dbg !4654

11:                                               ; preds = %9, %3
  %12 = load ptr, ptr %5, align 8, !dbg !4655
  %13 = load i64, ptr %6, align 8, !dbg !4656
  call void @_ZN4llvm15SmallVectorBaseIjE20set_allocation_rangeEPvm(ptr noundef nonnull align 8 dereferenceable(16) %7, ptr noundef %12, i64 noundef %13), !dbg !4657
  ret void, !dbg !4658
}

declare noundef ptr @_ZN4llvm15SmallVectorBaseIjE13mallocForGrowEPvmmRm(ptr noundef nonnull align 8 dereferenceable(16), ptr noundef, i64 noundef, i64 noundef, ptr noundef nonnull align 8 dereferenceable(8)) #1

; Function Attrs: mustprogress noinline nounwind optnone uwtable
define linkonce_odr dso_local noundef ptr @_ZNK4llvm25SmallVectorTemplateCommonISt8functionIFbNS_9StringRefERNS_11PassManagerINS_8FunctionENS_15AnalysisManagerIS4_JEEEJEEENS_8ArrayRefINS_11PassBuilder15PipelineElementEEEEEvE10getFirstElEv(ptr noundef nonnull align 8 dereferenceable(16) %0) #0 comdat align 2 !dbg !4659 {
  %2 = alloca ptr, align 8
  store ptr %0, ptr %2, align 8
    #dbg_declare(ptr %2, !4663, !DIExpression(), !4664)
  %3 = load ptr, ptr %2, align 8
  %4 = getelementptr inbounds i8, ptr %3, i64 16, !dbg !4665
  ret ptr %4, !dbg !4666
}

; Function Attrs: mustprogress noinline nounwind optnone uwtable
define linkonce_odr dso_local void @_ZN4llvm23SmallVectorTemplateBaseISt8functionIFbNS_9StringRefERNS_11PassManagerINS_8FunctionENS_15AnalysisManagerIS4_JEEEJEEENS_8ArrayRefINS_11PassBuilder15PipelineElementEEEEELb0EE18uninitialized_moveIPSE_SH_EEvT_SI_T0_(ptr noundef %0, ptr noundef %1, ptr noundef %2) #0 comdat align 2 !dbg !4667 {
  %4 = alloca ptr, align 8
  %5 = alloca ptr, align 8
  %6 = alloca ptr, align 8
  store ptr %0, ptr %4, align 8
    #dbg_declare(ptr %4, !4674, !DIExpression(), !4675)
  store ptr %1, ptr %5, align 8
    #dbg_declare(ptr %5, !4676, !DIExpression(), !4677)
  store ptr %2, ptr %6, align 8
    #dbg_declare(ptr %6, !4678, !DIExpression(), !4679)
  %7 = load ptr, ptr %4, align 8, !dbg !4680
  %8 = load ptr, ptr %5, align 8, !dbg !4681
  %9 = load ptr, ptr %6, align 8, !dbg !4682
  %10 = call noundef ptr @_ZSt18uninitialized_moveIPSt8functionIFbN4llvm9StringRefERNS1_11PassManagerINS1_8FunctionENS1_15AnalysisManagerIS4_JEEEJEEENS1_8ArrayRefINS1_11PassBuilder15PipelineElementEEEEESF_ET0_T_SH_SG_(ptr noundef %7, ptr noundef %8, ptr noundef %9), !dbg !4683
  ret void, !dbg !4684
}

; Function Attrs: mustprogress noinline nounwind optnone uwtable
define linkonce_odr dso_local void @_ZN4llvm23SmallVectorTemplateBaseISt8functionIFbNS_9StringRefERNS_11PassManagerINS_8FunctionENS_15AnalysisManagerIS4_JEEEJEEENS_8ArrayRefINS_11PassBuilder15PipelineElementEEEEELb0EE13destroy_rangeEPSE_SG_(ptr noundef %0, ptr noundef %1) #0 comdat align 2 !dbg !4685 {
  %3 = alloca ptr, align 8
  %4 = alloca ptr, align 8
  store ptr %0, ptr %3, align 8
    #dbg_declare(ptr %3, !4689, !DIExpression(), !4690)
  store ptr %1, ptr %4, align 8
    #dbg_declare(ptr %4, !4691, !DIExpression(), !4692)
  br label %5, !dbg !4693

5:                                                ; preds = %9, %2
  %6 = load ptr, ptr %3, align 8, !dbg !4694
  %7 = load ptr, ptr %4, align 8, !dbg !4695
  %8 = icmp ne ptr %6, %7, !dbg !4696
  br i1 %8, label %9, label %13, !dbg !4693

9:                                                ; preds = %5
  %10 = load ptr, ptr %4, align 8, !dbg !4697
  %11 = getelementptr inbounds %"class.std::function", ptr %10, i32 -1, !dbg !4697
  store ptr %11, ptr %4, align 8, !dbg !4697
  %12 = load ptr, ptr %4, align 8, !dbg !4699
  call void @_ZNSt8functionIFbN4llvm9StringRefERNS0_11PassManagerINS0_8FunctionENS0_15AnalysisManagerIS3_JEEEJEEENS0_8ArrayRefINS0_11PassBuilder15PipelineElementEEEEED2Ev(ptr noundef nonnull align 8 dereferenceable(32) %12) #12, !dbg !4700
  br label %5, !dbg !4693, !llvm.loop !4701

13:                                               ; preds = %5
  ret void, !dbg !4704
}

; Function Attrs: mustprogress noinline nounwind optnone uwtable
define linkonce_odr dso_local noundef ptr @_ZSt18uninitialized_moveIPSt8functionIFbN4llvm9StringRefERNS1_11PassManagerINS1_8FunctionENS1_15AnalysisManagerIS4_JEEEJEEENS1_8ArrayRefINS1_11PassBuilder15PipelineElementEEEEESF_ET0_T_SH_SG_(ptr noundef %0, ptr noundef %1, ptr noundef %2) #0 comdat !dbg !4705 {
  %4 = alloca ptr, align 8
  %5 = alloca ptr, align 8
  %6 = alloca ptr, align 8
  %7 = alloca %"class.std::move_iterator", align 8
  %8 = alloca %"class.std::move_iterator", align 8
  store ptr %0, ptr %4, align 8
    #dbg_declare(ptr %4, !4712, !DIExpression(), !4713)
  store ptr %1, ptr %5, align 8
    #dbg_declare(ptr %5, !4714, !DIExpression(), !4715)
  store ptr %2, ptr %6, align 8
    #dbg_declare(ptr %6, !4716, !DIExpression(), !4717)
  %9 = load ptr, ptr %4, align 8, !dbg !4718
  %10 = call ptr @_ZSt18make_move_iteratorIPSt8functionIFbN4llvm9StringRefERNS1_11PassManagerINS1_8FunctionENS1_15AnalysisManagerIS4_JEEEJEEENS1_8ArrayRefINS1_11PassBuilder15PipelineElementEEEEEESt13move_iteratorIT_ESH_(ptr noundef %9), !dbg !4718
  %11 = getelementptr inbounds %"class.std::move_iterator", ptr %7, i32 0, i32 0, !dbg !4718
  store ptr %10, ptr %11, align 8, !dbg !4718
  %12 = load ptr, ptr %5, align 8, !dbg !4719
  %13 = call ptr @_ZSt18make_move_iteratorIPSt8functionIFbN4llvm9StringRefERNS1_11PassManagerINS1_8FunctionENS1_15AnalysisManagerIS4_JEEEJEEENS1_8ArrayRefINS1_11PassBuilder15PipelineElementEEEEEESt13move_iteratorIT_ESH_(ptr noundef %12), !dbg !4719
  %14 = getelementptr inbounds %"class.std::move_iterator", ptr %8, i32 0, i32 0, !dbg !4719
  store ptr %13, ptr %14, align 8, !dbg !4719
  %15 = load ptr, ptr %6, align 8, !dbg !4720
  %16 = getelementptr inbounds %"class.std::move_iterator", ptr %7, i32 0, i32 0, !dbg !4721
  %17 = load ptr, ptr %16, align 8, !dbg !4721
  %18 = getelementptr inbounds %"class.std::move_iterator", ptr %8, i32 0, i32 0, !dbg !4721
  %19 = load ptr, ptr %18, align 8, !dbg !4721
  %20 = call noundef ptr @_ZSt18uninitialized_copyISt13move_iteratorIPSt8functionIFbN4llvm9StringRefERNS2_11PassManagerINS2_8FunctionENS2_15AnalysisManagerIS5_JEEEJEEENS2_8ArrayRefINS2_11PassBuilder15PipelineElementEEEEEESG_ET0_T_SJ_SI_(ptr %17, ptr %19, ptr noundef %15), !dbg !4721
  ret ptr %20, !dbg !4722
}

; Function Attrs: mustprogress noinline nounwind optnone uwtable
define linkonce_odr dso_local noundef ptr @_ZSt18uninitialized_copyISt13move_iteratorIPSt8functionIFbN4llvm9StringRefERNS2_11PassManagerINS2_8FunctionENS2_15AnalysisManagerIS5_JEEEJEEENS2_8ArrayRefINS2_11PassBuilder15PipelineElementEEEEEESG_ET0_T_SJ_SI_(ptr %0, ptr %1, ptr noundef %2) #0 comdat !dbg !4723 {
  %4 = alloca %"class.std::move_iterator", align 8
  %5 = alloca %"class.std::move_iterator", align 8
  %6 = alloca ptr, align 8
  %7 = alloca i8, align 1
  %8 = alloca i8, align 1
  %9 = alloca %"class.std::move_iterator", align 8
  %10 = alloca %"class.std::move_iterator", align 8
  %11 = getelementptr inbounds %"class.std::move_iterator", ptr %4, i32 0, i32 0
  store ptr %0, ptr %11, align 8
  %12 = getelementptr inbounds %"class.std::move_iterator", ptr %5, i32 0, i32 0
  store ptr %1, ptr %12, align 8
    #dbg_declare(ptr %4, !4728, !DIExpression(), !4729)
    #dbg_declare(ptr %5, !4730, !DIExpression(), !4731)
  store ptr %2, ptr %6, align 8
    #dbg_declare(ptr %6, !4732, !DIExpression(), !4733)
    #dbg_declare(ptr %7, !4734, !DIExpression(), !4735)
  store i8 0, ptr %7, align 1, !dbg !4735
    #dbg_declare(ptr %8, !4736, !DIExpression(), !4737)
  store i8 0, ptr %8, align 1, !dbg !4737
  call void @llvm.memcpy.p0.p0.i64(ptr align 8 %9, ptr align 8 %4, i64 8, i1 false), !dbg !4738
  call void @llvm.memcpy.p0.p0.i64(ptr align 8 %10, ptr align 8 %5, i64 8, i1 false), !dbg !4739
  %13 = load ptr, ptr %6, align 8, !dbg !4740
  %14 = getelementptr inbounds %"class.std::move_iterator", ptr %9, i32 0, i32 0, !dbg !4741
  %15 = load ptr, ptr %14, align 8, !dbg !4741
  %16 = getelementptr inbounds %"class.std::move_iterator", ptr %10, i32 0, i32 0, !dbg !4741
  %17 = load ptr, ptr %16, align 8, !dbg !4741
  %18 = call noundef ptr @_ZNSt20__uninitialized_copyILb0EE13__uninit_copyISt13move_iteratorIPSt8functionIFbN4llvm9StringRefERNS4_11PassManagerINS4_8FunctionENS4_15AnalysisManagerIS7_JEEEJEEENS4_8ArrayRefINS4_11PassBuilder15PipelineElementEEEEEESI_EET0_T_SL_SK_(ptr %15, ptr %17, ptr noundef %13), !dbg !4741
  ret ptr %18, !dbg !4742
}

; Function Attrs: mustprogress noinline nounwind optnone uwtable
define linkonce_odr dso_local ptr @_ZSt18make_move_iteratorIPSt8functionIFbN4llvm9StringRefERNS1_11PassManagerINS1_8FunctionENS1_15AnalysisManagerIS4_JEEEJEEENS1_8ArrayRefINS1_11PassBuilder15PipelineElementEEEEEESt13move_iteratorIT_ESH_(ptr noundef %0) #0 comdat !dbg !4743 {
  %2 = alloca %"class.std::move_iterator", align 8
  %3 = alloca ptr, align 8
  store ptr %0, ptr %3, align 8
    #dbg_declare(ptr %3, !4746, !DIExpression(), !4747)
  %4 = load ptr, ptr %3, align 8, !dbg !4748
  call void @_ZNSt13move_iteratorIPSt8functionIFbN4llvm9StringRefERNS1_11PassManagerINS1_8FunctionENS1_15AnalysisManagerIS4_JEEEJEEENS1_8ArrayRefINS1_11PassBuilder15PipelineElementEEEEEEC2ESF_(ptr noundef nonnull align 8 dereferenceable(8) %2, ptr noundef %4), !dbg !4749
  %5 = getelementptr inbounds %"class.std::move_iterator", ptr %2, i32 0, i32 0, !dbg !4750
  %6 = load ptr, ptr %5, align 8, !dbg !4750
  ret ptr %6, !dbg !4750
}

; Function Attrs: mustprogress noinline nounwind optnone uwtable
define linkonce_odr dso_local noundef ptr @_ZNSt20__uninitialized_copyILb0EE13__uninit_copyISt13move_iteratorIPSt8functionIFbN4llvm9StringRefERNS4_11PassManagerINS4_8FunctionENS4_15AnalysisManagerIS7_JEEEJEEENS4_8ArrayRefINS4_11PassBuilder15PipelineElementEEEEEESI_EET0_T_SL_SK_(ptr %0, ptr %1, ptr noundef %2) #0 comdat align 2 !dbg !4751 {
  %4 = alloca %"class.std::move_iterator", align 8
  %5 = alloca %"class.std::move_iterator", align 8
  %6 = alloca ptr, align 8
  %7 = alloca %"class.std::move_iterator", align 8
  %8 = alloca %"class.std::move_iterator", align 8
  %9 = getelementptr inbounds %"class.std::move_iterator", ptr %4, i32 0, i32 0
  store ptr %0, ptr %9, align 8
  %10 = getelementptr inbounds %"class.std::move_iterator", ptr %5, i32 0, i32 0
  store ptr %1, ptr %10, align 8
    #dbg_declare(ptr %4, !4756, !DIExpression(), !4757)
    #dbg_declare(ptr %5, !4758, !DIExpression(), !4759)
  store ptr %2, ptr %6, align 8
    #dbg_declare(ptr %6, !4760, !DIExpression(), !4761)
  call void @llvm.memcpy.p0.p0.i64(ptr align 8 %7, ptr align 8 %4, i64 8, i1 false), !dbg !4762
  call void @llvm.memcpy.p0.p0.i64(ptr align 8 %8, ptr align 8 %5, i64 8, i1 false), !dbg !4763
  %11 = load ptr, ptr %6, align 8, !dbg !4764
  %12 = getelementptr inbounds %"class.std::move_iterator", ptr %7, i32 0, i32 0, !dbg !4765
  %13 = load ptr, ptr %12, align 8, !dbg !4765
  %14 = getelementptr inbounds %"class.std::move_iterator", ptr %8, i32 0, i32 0, !dbg !4765
  %15 = load ptr, ptr %14, align 8, !dbg !4765
  %16 = call noundef ptr @_ZSt16__do_uninit_copyISt13move_iteratorIPSt8functionIFbN4llvm9StringRefERNS2_11PassManagerINS2_8FunctionENS2_15AnalysisManagerIS5_JEEEJEEENS2_8ArrayRefINS2_11PassBuilder15PipelineElementEEEEEESG_ET0_T_SJ_SI_(ptr %13, ptr %15, ptr noundef %11), !dbg !4765
  ret ptr %16, !dbg !4766
}

; Function Attrs: nocallback nofree nounwind willreturn memory(argmem: readwrite)
declare void @llvm.memcpy.p0.p0.i64(ptr noalias nocapture writeonly, ptr noalias nocapture readonly, i64, i1 immarg) #2

; Function Attrs: mustprogress noinline nounwind optnone uwtable
define linkonce_odr dso_local noundef ptr @_ZSt16__do_uninit_copyISt13move_iteratorIPSt8functionIFbN4llvm9StringRefERNS2_11PassManagerINS2_8FunctionENS2_15AnalysisManagerIS5_JEEEJEEENS2_8ArrayRefINS2_11PassBuilder15PipelineElementEEEEEESG_ET0_T_SJ_SI_(ptr %0, ptr %1, ptr noundef %2) #0 comdat !dbg !4767 {
  %4 = alloca %"class.std::move_iterator", align 8
  %5 = alloca %"class.std::move_iterator", align 8
  %6 = alloca ptr, align 8
  %7 = alloca ptr, align 8
  %8 = getelementptr inbounds %"class.std::move_iterator", ptr %4, i32 0, i32 0
  store ptr %0, ptr %8, align 8
  %9 = getelementptr inbounds %"class.std::move_iterator", ptr %5, i32 0, i32 0
  store ptr %1, ptr %9, align 8
    #dbg_declare(ptr %4, !4768, !DIExpression(), !4769)
    #dbg_declare(ptr %5, !4770, !DIExpression(), !4771)
  store ptr %2, ptr %6, align 8
    #dbg_declare(ptr %6, !4772, !DIExpression(), !4773)
    #dbg_declare(ptr %7, !4774, !DIExpression(), !4775)
  %10 = load ptr, ptr %6, align 8, !dbg !4776
  store ptr %10, ptr %7, align 8, !dbg !4775
  br label %11, !dbg !4777

11:                                               ; preds = %16, %3
  %12 = call noundef zeroext i1 @_ZStneIPSt8functionIFbN4llvm9StringRefERNS1_11PassManagerINS1_8FunctionENS1_15AnalysisManagerIS4_JEEEJEEENS1_8ArrayRefINS1_11PassBuilder15PipelineElementEEEEEEbRKSt13move_iteratorIT_ESK_(ptr noundef nonnull align 8 dereferenceable(8) %4, ptr noundef nonnull align 8 dereferenceable(8) %5), !dbg !4780
  br i1 %12, label %13, label %20, !dbg !4783

13:                                               ; preds = %11
  %14 = load ptr, ptr %7, align 8, !dbg !4784
  %15 = call noundef nonnull align 8 dereferenceable(32) ptr @_ZNKSt13move_iteratorIPSt8functionIFbN4llvm9StringRefERNS1_11PassManagerINS1_8FunctionENS1_15AnalysisManagerIS4_JEEEJEEENS1_8ArrayRefINS1_11PassBuilder15PipelineElementEEEEEEdeEv(ptr noundef nonnull align 8 dereferenceable(8) %4), !dbg !4785
  call void @_ZSt10_ConstructISt8functionIFbN4llvm9StringRefERNS1_11PassManagerINS1_8FunctionENS1_15AnalysisManagerIS4_JEEEJEEENS1_8ArrayRefINS1_11PassBuilder15PipelineElementEEEEEJSE_EEvPT_DpOT0_(ptr noundef %14, ptr noundef nonnull align 8 dereferenceable(32) %15), !dbg !4786
  br label %16, !dbg !4786

16:                                               ; preds = %13
  %17 = call noundef nonnull align 8 dereferenceable(8) ptr @_ZNSt13move_iteratorIPSt8functionIFbN4llvm9StringRefERNS1_11PassManagerINS1_8FunctionENS1_15AnalysisManagerIS4_JEEEJEEENS1_8ArrayRefINS1_11PassBuilder15PipelineElementEEEEEEppEv(ptr noundef nonnull align 8 dereferenceable(8) %4), !dbg !4787
  %18 = load ptr, ptr %7, align 8, !dbg !4788
  %19 = getelementptr inbounds %"class.std::function", ptr %18, i32 1, !dbg !4788
  store ptr %19, ptr %7, align 8, !dbg !4788
  br label %11, !dbg !4789, !llvm.loop !4790

20:                                               ; preds = %11
  %21 = load ptr, ptr %7, align 8, !dbg !4792
  ret ptr %21, !dbg !4793
}

; Function Attrs: mustprogress noinline nounwind optnone uwtable
define linkonce_odr dso_local noundef zeroext i1 @_ZStneIPSt8functionIFbN4llvm9StringRefERNS1_11PassManagerINS1_8FunctionENS1_15AnalysisManagerIS4_JEEEJEEENS1_8ArrayRefINS1_11PassBuilder15PipelineElementEEEEEEbRKSt13move_iteratorIT_ESK_(ptr noundef nonnull align 8 dereferenceable(8) %0, ptr noundef nonnull align 8 dereferenceable(8) %1) #0 comdat !dbg !4794 {
  %3 = alloca ptr, align 8
  %4 = alloca ptr, align 8
  store ptr %0, ptr %3, align 8
    #dbg_declare(ptr %3, !4798, !DIExpression(), !4799)
  store ptr %1, ptr %4, align 8
    #dbg_declare(ptr %4, !4800, !DIExpression(), !4801)
  %5 = load ptr, ptr %3, align 8, !dbg !4802
  %6 = load ptr, ptr %4, align 8, !dbg !4803
  %7 = call noundef zeroext i1 @_ZSteqIPSt8functionIFbN4llvm9StringRefERNS1_11PassManagerINS1_8FunctionENS1_15AnalysisManagerIS4_JEEEJEEENS1_8ArrayRefINS1_11PassBuilder15PipelineElementEEEEEEbRKSt13move_iteratorIT_ESK_(ptr noundef nonnull align 8 dereferenceable(8) %5, ptr noundef nonnull align 8 dereferenceable(8) %6), !dbg !4804
  %8 = xor i1 %7, true, !dbg !4805
  ret i1 %8, !dbg !4806
}

; Function Attrs: mustprogress noinline nounwind optnone uwtable
define linkonce_odr dso_local void @_ZSt10_ConstructISt8functionIFbN4llvm9StringRefERNS1_11PassManagerINS1_8FunctionENS1_15AnalysisManagerIS4_JEEEJEEENS1_8ArrayRefINS1_11PassBuilder15PipelineElementEEEEEJSE_EEvPT_DpOT0_(ptr noundef %0, ptr noundef nonnull align 8 dereferenceable(32) %1) #0 comdat !dbg !4807 {
  %3 = alloca ptr, align 8
  %4 = alloca ptr, align 8
  store ptr %0, ptr %3, align 8
    #dbg_declare(ptr %3, !4816, !DIExpression(), !4817)
  store ptr %1, ptr %4, align 8
    #dbg_declare(ptr %4, !4818, !DIExpression(), !4819)
  %5 = load ptr, ptr %3, align 8, !dbg !4820
  %6 = load ptr, ptr %4, align 8, !dbg !4821
  call void @_ZNSt8functionIFbN4llvm9StringRefERNS0_11PassManagerINS0_8FunctionENS0_15AnalysisManagerIS3_JEEEJEEENS0_8ArrayRefINS0_11PassBuilder15PipelineElementEEEEEC2EOSD_(ptr noundef nonnull align 8 dereferenceable(32) %5, ptr noundef nonnull align 8 dereferenceable(32) %6) #12, !dbg !4822
  ret void, !dbg !4823
}

; Function Attrs: mustprogress noinline nounwind optnone uwtable
define linkonce_odr dso_local noundef nonnull align 8 dereferenceable(32) ptr @_ZNKSt13move_iteratorIPSt8functionIFbN4llvm9StringRefERNS1_11PassManagerINS1_8FunctionENS1_15AnalysisManagerIS4_JEEEJEEENS1_8ArrayRefINS1_11PassBuilder15PipelineElementEEEEEEdeEv(ptr noundef nonnull align 8 dereferenceable(8) %0) #0 comdat align 2 !dbg !4824 {
  %2 = alloca ptr, align 8
  store ptr %0, ptr %2, align 8
    #dbg_declare(ptr %2, !4825, !DIExpression(), !4827)
  %3 = load ptr, ptr %2, align 8
  %4 = getelementptr inbounds %"class.std::move_iterator", ptr %3, i32 0, i32 0, !dbg !4828
  %5 = load ptr, ptr %4, align 8, !dbg !4828
  ret ptr %5, !dbg !4829
}

; Function Attrs: mustprogress noinline nounwind optnone uwtable
define linkonce_odr dso_local noundef nonnull align 8 dereferenceable(8) ptr @_ZNSt13move_iteratorIPSt8functionIFbN4llvm9StringRefERNS1_11PassManagerINS1_8FunctionENS1_15AnalysisManagerIS4_JEEEJEEENS1_8ArrayRefINS1_11PassBuilder15PipelineElementEEEEEEppEv(ptr noundef nonnull align 8 dereferenceable(8) %0) #0 comdat align 2 !dbg !4830 {
  %2 = alloca ptr, align 8
  store ptr %0, ptr %2, align 8
    #dbg_declare(ptr %2, !4831, !DIExpression(), !4833)
  %3 = load ptr, ptr %2, align 8
  %4 = getelementptr inbounds %"class.std::move_iterator", ptr %3, i32 0, i32 0, !dbg !4834
  %5 = load ptr, ptr %4, align 8, !dbg !4835
  %6 = getelementptr inbounds %"class.std::function", ptr %5, i32 1, !dbg !4835
  store ptr %6, ptr %4, align 8, !dbg !4835
  ret ptr %3, !dbg !4836
}

; Function Attrs: mustprogress noinline nounwind optnone uwtable
define linkonce_odr dso_local noundef zeroext i1 @_ZSteqIPSt8functionIFbN4llvm9StringRefERNS1_11PassManagerINS1_8FunctionENS1_15AnalysisManagerIS4_JEEEJEEENS1_8ArrayRefINS1_11PassBuilder15PipelineElementEEEEEEbRKSt13move_iteratorIT_ESK_(ptr noundef nonnull align 8 dereferenceable(8) %0, ptr noundef nonnull align 8 dereferenceable(8) %1) #0 comdat !dbg !4837 {
  %3 = alloca ptr, align 8
  %4 = alloca ptr, align 8
  store ptr %0, ptr %3, align 8
    #dbg_declare(ptr %3, !4838, !DIExpression(), !4839)
  store ptr %1, ptr %4, align 8
    #dbg_declare(ptr %4, !4840, !DIExpression(), !4841)
  %5 = load ptr, ptr %3, align 8, !dbg !4842
  %6 = call noundef ptr @_ZNKSt13move_iteratorIPSt8functionIFbN4llvm9StringRefERNS1_11PassManagerINS1_8FunctionENS1_15AnalysisManagerIS4_JEEEJEEENS1_8ArrayRefINS1_11PassBuilder15PipelineElementEEEEEE4baseEv(ptr noundef nonnull align 8 dereferenceable(8) %5), !dbg !4843
  %7 = load ptr, ptr %4, align 8, !dbg !4844
  %8 = call noundef ptr @_ZNKSt13move_iteratorIPSt8functionIFbN4llvm9StringRefERNS1_11PassManagerINS1_8FunctionENS1_15AnalysisManagerIS4_JEEEJEEENS1_8ArrayRefINS1_11PassBuilder15PipelineElementEEEEEE4baseEv(ptr noundef nonnull align 8 dereferenceable(8) %7), !dbg !4845
  %9 = icmp eq ptr %6, %8, !dbg !4846
  ret i1 %9, !dbg !4847
}

; Function Attrs: mustprogress noinline nounwind optnone uwtable
define linkonce_odr dso_local noundef ptr @_ZNKSt13move_iteratorIPSt8functionIFbN4llvm9StringRefERNS1_11PassManagerINS1_8FunctionENS1_15AnalysisManagerIS4_JEEEJEEENS1_8ArrayRefINS1_11PassBuilder15PipelineElementEEEEEE4baseEv(ptr noundef nonnull align 8 dereferenceable(8) %0) #0 comdat align 2 !dbg !4848 {
  %2 = alloca ptr, align 8
  store ptr %0, ptr %2, align 8
    #dbg_declare(ptr %2, !4849, !DIExpression(), !4850)
  %3 = load ptr, ptr %2, align 8
  %4 = getelementptr inbounds %"class.std::move_iterator", ptr %3, i32 0, i32 0, !dbg !4851
  %5 = load ptr, ptr %4, align 8, !dbg !4851
  ret ptr %5, !dbg !4852
}

; Function Attrs: mustprogress noinline nounwind optnone uwtable
define linkonce_odr dso_local void @_ZNSt8functionIFbN4llvm9StringRefERNS0_11PassManagerINS0_8FunctionENS0_15AnalysisManagerIS3_JEEEJEEENS0_8ArrayRefINS0_11PassBuilder15PipelineElementEEEEEC2EOSD_(ptr noundef nonnull align 8 dereferenceable(32) %0, ptr noundef nonnull align 8 dereferenceable(32) %1) unnamed_addr #0 comdat align 2 !dbg !4853 {
  %3 = alloca ptr, align 8
  %4 = alloca ptr, align 8
  store ptr %0, ptr %3, align 8
    #dbg_declare(ptr %3, !4854, !DIExpression(), !4855)
  store ptr %1, ptr %4, align 8
    #dbg_declare(ptr %4, !4856, !DIExpression(), !4857)
  %5 = load ptr, ptr %3, align 8
  %6 = getelementptr inbounds i8, ptr %5, i64 0, !dbg !4858
  call void @llvm.memset.p0.i64(ptr align 8 %6, i8 0, i64 24, i1 false), !dbg !4858
  call void @_ZNSt14_Function_baseC2Ev(ptr noundef nonnull align 8 dereferenceable(24) %5) #12, !dbg !4858
  %7 = getelementptr inbounds %"class.std::function", ptr %5, i32 0, i32 1, !dbg !4859
  %8 = load ptr, ptr %4, align 8, !dbg !4860
  %9 = getelementptr inbounds %"class.std::function", ptr %8, i32 0, i32 1, !dbg !4861
  %10 = load ptr, ptr %9, align 8, !dbg !4861
  store ptr %10, ptr %7, align 8, !dbg !4859
  %11 = load ptr, ptr %4, align 8, !dbg !4862
  %12 = call noundef zeroext i1 @_ZNKSt8functionIFbN4llvm9StringRefERNS0_11PassManagerINS0_8FunctionENS0_15AnalysisManagerIS3_JEEEJEEENS0_8ArrayRefINS0_11PassBuilder15PipelineElementEEEEEcvbEv(ptr noundef nonnull align 8 dereferenceable(32) %11) #12, !dbg !4862
  br i1 %12, label %13, label %25, !dbg !4865

13:                                               ; preds = %2
  %14 = load ptr, ptr %4, align 8, !dbg !4866
  %15 = getelementptr inbounds %"class.std::_Function_base", ptr %14, i32 0, i32 0, !dbg !4868
  %16 = getelementptr inbounds %"class.std::_Function_base", ptr %5, i32 0, i32 0, !dbg !4869
  call void @llvm.memcpy.p0.p0.i64(ptr align 8 %16, ptr align 8 %15, i64 16, i1 false), !dbg !4870
  %17 = load ptr, ptr %4, align 8, !dbg !4871
  %18 = getelementptr inbounds %"class.std::_Function_base", ptr %17, i32 0, i32 1, !dbg !4872
  %19 = load ptr, ptr %18, align 8, !dbg !4872
  %20 = getelementptr inbounds %"class.std::_Function_base", ptr %5, i32 0, i32 1, !dbg !4873
  store ptr %19, ptr %20, align 8, !dbg !4874
  %21 = load ptr, ptr %4, align 8, !dbg !4875
  %22 = getelementptr inbounds %"class.std::_Function_base", ptr %21, i32 0, i32 1, !dbg !4876
  store ptr null, ptr %22, align 8, !dbg !4877
  %23 = load ptr, ptr %4, align 8, !dbg !4878
  %24 = getelementptr inbounds %"class.std::function", ptr %23, i32 0, i32 1, !dbg !4879
  store ptr null, ptr %24, align 8, !dbg !4880
  br label %25, !dbg !4881

25:                                               ; preds = %13, %2
  ret void, !dbg !4882
}

; Function Attrs: nocallback nofree nounwind willreturn memory(argmem: write)
declare void @llvm.memset.p0.i64(ptr nocapture writeonly, i8, i64, i1 immarg) #3

; Function Attrs: mustprogress noinline nounwind optnone uwtable
define linkonce_odr dso_local void @_ZNSt14_Function_baseC2Ev(ptr noundef nonnull align 8 dereferenceable(24) %0) unnamed_addr #0 comdat align 2 !dbg !4883 {
  %2 = alloca ptr, align 8
  store ptr %0, ptr %2, align 8
    #dbg_declare(ptr %2, !4884, !DIExpression(), !4886)
  %3 = load ptr, ptr %2, align 8
  %4 = getelementptr inbounds %"class.std::_Function_base", ptr %3, i32 0, i32 0, !dbg !4887
  store ptr null, ptr %4, align 8, !dbg !4888
  %5 = getelementptr inbounds %"class.std::_Function_base", ptr %3, i32 0, i32 1, !dbg !4889
  store ptr null, ptr %5, align 8, !dbg !4889
  ret void, !dbg !4890
}

; Function Attrs: mustprogress noinline nounwind optnone uwtable
define linkonce_odr dso_local noundef zeroext i1 @_ZNKSt8functionIFbN4llvm9StringRefERNS0_11PassManagerINS0_8FunctionENS0_15AnalysisManagerIS3_JEEEJEEENS0_8ArrayRefINS0_11PassBuilder15PipelineElementEEEEEcvbEv(ptr noundef nonnull align 8 dereferenceable(32) %0) #0 comdat align 2 !dbg !4891 {
  %2 = alloca ptr, align 8
  store ptr %0, ptr %2, align 8
    #dbg_declare(ptr %2, !4892, !DIExpression(), !4893)
  %3 = load ptr, ptr %2, align 8
  %4 = call noundef zeroext i1 @_ZNKSt14_Function_base8_M_emptyEv(ptr noundef nonnull align 8 dereferenceable(24) %3), !dbg !4894
  %5 = xor i1 %4, true, !dbg !4895
  ret i1 %5, !dbg !4896
}

; Function Attrs: mustprogress noinline nounwind optnone uwtable
define linkonce_odr dso_local noundef zeroext i1 @_ZNKSt14_Function_base8_M_emptyEv(ptr noundef nonnull align 8 dereferenceable(24) %0) #0 comdat align 2 !dbg !4897 {
  %2 = alloca ptr, align 8
  store ptr %0, ptr %2, align 8
    #dbg_declare(ptr %2, !4898, !DIExpression(), !4900)
  %3 = load ptr, ptr %2, align 8
  %4 = getelementptr inbounds %"class.std::_Function_base", ptr %3, i32 0, i32 1, !dbg !4901
  %5 = load ptr, ptr %4, align 8, !dbg !4901
  %6 = icmp ne ptr %5, null, !dbg !4901
  %7 = xor i1 %6, true, !dbg !4902
  ret i1 %7, !dbg !4903
}

; Function Attrs: mustprogress noinline nounwind optnone uwtable
define linkonce_odr dso_local void @_ZNSt13move_iteratorIPSt8functionIFbN4llvm9StringRefERNS1_11PassManagerINS1_8FunctionENS1_15AnalysisManagerIS4_JEEEJEEENS1_8ArrayRefINS1_11PassBuilder15PipelineElementEEEEEEC2ESF_(ptr noundef nonnull align 8 dereferenceable(8) %0, ptr noundef %1) unnamed_addr #0 comdat align 2 !dbg !4904 {
  %3 = alloca ptr, align 8
  %4 = alloca ptr, align 8
  store ptr %0, ptr %3, align 8
    #dbg_declare(ptr %3, !4905, !DIExpression(), !4906)
  store ptr %1, ptr %4, align 8
    #dbg_declare(ptr %4, !4907, !DIExpression(), !4908)
  %5 = load ptr, ptr %3, align 8
  %6 = getelementptr inbounds %"class.std::move_iterator", ptr %5, i32 0, i32 0, !dbg !4909
  %7 = load ptr, ptr %4, align 8, !dbg !4910
  store ptr %7, ptr %6, align 8, !dbg !4909
  ret void, !dbg !4911
}

; Function Attrs: mustprogress noinline nounwind optnone uwtable
define linkonce_odr dso_local noundef zeroext i1 @_ZNK4llvm25SmallVectorTemplateCommonISt8functionIFbNS_9StringRefERNS_11PassManagerINS_8FunctionENS_15AnalysisManagerIS4_JEEEJEEENS_8ArrayRefINS_11PassBuilder15PipelineElementEEEEEvE7isSmallEv(ptr noundef nonnull align 8 dereferenceable(16) %0) #0 comdat align 2 !dbg !4912 {
  %2 = alloca ptr, align 8
  store ptr %0, ptr %2, align 8
    #dbg_declare(ptr %2, !4916, !DIExpression(), !4917)
  %3 = load ptr, ptr %2, align 8
  %4 = getelementptr inbounds %"class.llvm::SmallVectorBase", ptr %3, i32 0, i32 0, !dbg !4918
  %5 = load ptr, ptr %4, align 8, !dbg !4918
  %6 = call noundef ptr @_ZNK4llvm25SmallVectorTemplateCommonISt8functionIFbNS_9StringRefERNS_11PassManagerINS_8FunctionENS_15AnalysisManagerIS4_JEEEJEEENS_8ArrayRefINS_11PassBuilder15PipelineElementEEEEEvE10getFirstElEv(ptr noundef nonnull align 8 dereferenceable(16) %3), !dbg !4919
  %7 = icmp eq ptr %5, %6, !dbg !4920
  ret i1 %7, !dbg !4921
}

; Function Attrs: nounwind
declare void @free(ptr noundef) #4

declare void @_ZN4llvm15SmallVectorBaseIjE20set_allocation_rangeEPvm(ptr noundef nonnull align 8 dereferenceable(16), ptr noundef, i64 noundef) #1

; Function Attrs: mustprogress noinline nounwind optnone uwtable
define internal noundef zeroext i1 @"_ZNSt14_Function_base13_Base_managerIZZ23getHelloWorldPluginInfovENK3$_0clERN4llvm11PassBuilderEEUlNS2_9StringRefERNS2_11PassManagerINS2_8FunctionENS2_15AnalysisManagerIS7_JEEEJEEENS2_8ArrayRefINS3_15PipelineElementEEEE_E21_M_not_empty_functionISF_EEbRKT_"(ptr noundef nonnull align 1 dereferenceable(1) %0) #0 align 2 !dbg !4922 {
  %2 = alloca ptr, align 8
  store ptr %0, ptr %2, align 8
    #dbg_declare(ptr %2, !4969, !DIExpression(), !4970)
  ret i1 true, !dbg !4971
}

; Function Attrs: mustprogress noinline nounwind optnone uwtable
define internal void @"_ZNSt14_Function_base13_Base_managerIZZ23getHelloWorldPluginInfovENK3$_0clERN4llvm11PassBuilderEEUlNS2_9StringRefERNS2_11PassManagerINS2_8FunctionENS2_15AnalysisManagerIS7_JEEEJEEENS2_8ArrayRefINS3_15PipelineElementEEEE_E15_M_init_functorISF_EEvRSt9_Any_dataOT_"(ptr noundef nonnull align 8 dereferenceable(16) %0, ptr noundef nonnull align 1 dereferenceable(1) %1) #0 align 2 !dbg !4972 {
  %3 = alloca ptr, align 8
  %4 = alloca ptr, align 8
  %5 = alloca %"struct.std::integral_constant", align 1
  store ptr %0, ptr %3, align 8
    #dbg_declare(ptr %3, !4978, !DIExpression(), !4979)
  store ptr %1, ptr %4, align 8
    #dbg_declare(ptr %4, !4980, !DIExpression(), !4981)
  %6 = load ptr, ptr %3, align 8, !dbg !4982
  %7 = load ptr, ptr %4, align 8, !dbg !4983
  call void @"_ZNSt14_Function_base13_Base_managerIZZ23getHelloWorldPluginInfovENK3$_0clERN4llvm11PassBuilderEEUlNS2_9StringRefERNS2_11PassManagerINS2_8FunctionENS2_15AnalysisManagerIS7_JEEEJEEENS2_8ArrayRefINS3_15PipelineElementEEEE_E9_M_createISF_EEvRSt9_Any_dataOT_St17integral_constantIbLb1EE"(ptr noundef nonnull align 8 dereferenceable(16) %6, ptr noundef nonnull align 1 dereferenceable(1) %7), !dbg !4984
  ret void, !dbg !4985
}

; Function Attrs: mustprogress noinline nounwind optnone uwtable
define internal noundef zeroext i1 @"_ZNSt17_Function_handlerIFbN4llvm9StringRefERNS0_11PassManagerINS0_8FunctionENS0_15AnalysisManagerIS3_JEEEJEEENS0_8ArrayRefINS0_11PassBuilder15PipelineElementEEEEZZ23getHelloWorldPluginInfovENK3$_0clERS9_EUlS1_S7_SB_E_E9_M_invokeERKSt9_Any_dataOS1_S7_OSB_"(ptr noundef nonnull align 8 dereferenceable(16) %0, ptr noundef nonnull align 8 dereferenceable(16) %1, ptr noundef nonnull align 8 dereferenceable(24) %2, ptr noundef nonnull align 8 dereferenceable(16) %3) #0 align 2 !dbg !4986 {
  %5 = alloca ptr, align 8
  %6 = alloca ptr, align 8
  %7 = alloca ptr, align 8
  %8 = alloca ptr, align 8
  store ptr %0, ptr %5, align 8
    #dbg_declare(ptr %5, !4993, !DIExpression(), !4994)
  store ptr %1, ptr %6, align 8
    #dbg_declare(ptr %6, !4995, !DIExpression(), !4996)
  store ptr %2, ptr %7, align 8
    #dbg_declare(ptr %7, !4997, !DIExpression(), !4996)
  store ptr %3, ptr %8, align 8
    #dbg_declare(ptr %8, !4998, !DIExpression(), !4996)
  %9 = load ptr, ptr %5, align 8, !dbg !4999
  %10 = call noundef ptr @"_ZNSt14_Function_base13_Base_managerIZZ23getHelloWorldPluginInfovENK3$_0clERN4llvm11PassBuilderEEUlNS2_9StringRefERNS2_11PassManagerINS2_8FunctionENS2_15AnalysisManagerIS7_JEEEJEEENS2_8ArrayRefINS3_15PipelineElementEEEE_E14_M_get_pointerERKSt9_Any_data"(ptr noundef nonnull align 8 dereferenceable(16) %9) #12, !dbg !5000
  %11 = load ptr, ptr %6, align 8, !dbg !5001
  %12 = load ptr, ptr %7, align 8, !dbg !5001
  %13 = load ptr, ptr %8, align 8, !dbg !5001
  %14 = call noundef zeroext i1 @"_ZSt10__invoke_rIbRZZ23getHelloWorldPluginInfovENK3$_0clERN4llvm11PassBuilderEEUlNS1_9StringRefERNS1_11PassManagerINS1_8FunctionENS1_15AnalysisManagerIS6_JEEEJEEENS1_8ArrayRefINS2_15PipelineElementEEEE_JS4_SA_SD_EENSt9enable_ifIX16is_invocable_r_vIT_T0_DpT1_EESH_E4typeEOSI_DpOSJ_"(ptr noundef nonnull align 1 dereferenceable(1) %10, ptr noundef nonnull align 8 dereferenceable(16) %11, ptr noundef nonnull align 8 dereferenceable(24) %12, ptr noundef nonnull align 8 dereferenceable(16) %13), !dbg !5002
  ret i1 %14, !dbg !5003
}

; Function Attrs: mustprogress noinline nounwind optnone uwtable
define internal noundef zeroext i1 @"_ZNSt17_Function_handlerIFbN4llvm9StringRefERNS0_11PassManagerINS0_8FunctionENS0_15AnalysisManagerIS3_JEEEJEEENS0_8ArrayRefINS0_11PassBuilder15PipelineElementEEEEZZ23getHelloWorldPluginInfovENK3$_0clERS9_EUlS1_S7_SB_E_E10_M_managerERSt9_Any_dataRKSH_St18_Manager_operation"(ptr noundef nonnull align 8 dereferenceable(16) %0, ptr noundef nonnull align 8 dereferenceable(16) %1, i32 noundef %2) #0 align 2 !dbg !5004 {
  %4 = alloca ptr, align 8
  %5 = alloca ptr, align 8
  %6 = alloca i32, align 4
  store ptr %0, ptr %4, align 8
    #dbg_declare(ptr %4, !5005, !DIExpression(), !5006)
  store ptr %1, ptr %5, align 8
    #dbg_declare(ptr %5, !5007, !DIExpression(), !5008)
  store i32 %2, ptr %6, align 4
    #dbg_declare(ptr %6, !5009, !DIExpression(), !5010)
  %7 = load i32, ptr %6, align 4, !dbg !5011
  switch i32 %7, label %16 [
    i32 0, label %8
    i32 1, label %11
  ], !dbg !5012

8:                                                ; preds = %3
  %9 = load ptr, ptr %4, align 8, !dbg !5013
  %10 = call noundef nonnull align 8 dereferenceable(8) ptr @_ZNSt9_Any_data9_M_accessIPKSt9type_infoEERT_v(ptr noundef nonnull align 8 dereferenceable(16) %9) #12, !dbg !5015
  store ptr @"_ZTIZZ23getHelloWorldPluginInfovENK3$_0clERN4llvm11PassBuilderEEUlNS0_9StringRefERNS0_11PassManagerINS0_8FunctionENS0_15AnalysisManagerIS5_JEEEJEEENS0_8ArrayRefINS1_15PipelineElementEEEE_", ptr %10, align 8, !dbg !5016
  br label %21, !dbg !5017

11:                                               ; preds = %3
  %12 = load ptr, ptr %5, align 8, !dbg !5018
  %13 = call noundef ptr @"_ZNSt14_Function_base13_Base_managerIZZ23getHelloWorldPluginInfovENK3$_0clERN4llvm11PassBuilderEEUlNS2_9StringRefERNS2_11PassManagerINS2_8FunctionENS2_15AnalysisManagerIS7_JEEEJEEENS2_8ArrayRefINS3_15PipelineElementEEEE_E14_M_get_pointerERKSt9_Any_data"(ptr noundef nonnull align 8 dereferenceable(16) %12) #12, !dbg !5019
  %14 = load ptr, ptr %4, align 8, !dbg !5020
  %15 = call noundef nonnull align 8 dereferenceable(8) ptr @"_ZNSt9_Any_data9_M_accessIPZZ23getHelloWorldPluginInfovENK3$_0clERN4llvm11PassBuilderEEUlNS2_9StringRefERNS2_11PassManagerINS2_8FunctionENS2_15AnalysisManagerIS7_JEEEJEEENS2_8ArrayRefINS3_15PipelineElementEEEE_EERT_v"(ptr noundef nonnull align 8 dereferenceable(16) %14) #12, !dbg !5021
  store ptr %13, ptr %15, align 8, !dbg !5022
  br label %21, !dbg !5023

16:                                               ; preds = %3
  %17 = load ptr, ptr %4, align 8, !dbg !5024
  %18 = load ptr, ptr %5, align 8, !dbg !5025
  %19 = load i32, ptr %6, align 4, !dbg !5026
  %20 = call noundef zeroext i1 @"_ZNSt14_Function_base13_Base_managerIZZ23getHelloWorldPluginInfovENK3$_0clERN4llvm11PassBuilderEEUlNS2_9StringRefERNS2_11PassManagerINS2_8FunctionENS2_15AnalysisManagerIS7_JEEEJEEENS2_8ArrayRefINS3_15PipelineElementEEEE_E10_M_managerERSt9_Any_dataRKSH_St18_Manager_operation"(ptr noundef nonnull align 8 dereferenceable(16) %17, ptr noundef nonnull align 8 dereferenceable(16) %18, i32 noundef %19), !dbg !5027
  br label %21, !dbg !5028

21:                                               ; preds = %16, %11, %8
  ret i1 false, !dbg !5029
}

; Function Attrs: mustprogress noinline nounwind optnone uwtable
define internal void @"_ZNSt14_Function_base13_Base_managerIZZ23getHelloWorldPluginInfovENK3$_0clERN4llvm11PassBuilderEEUlNS2_9StringRefERNS2_11PassManagerINS2_8FunctionENS2_15AnalysisManagerIS7_JEEEJEEENS2_8ArrayRefINS3_15PipelineElementEEEE_E9_M_createISF_EEvRSt9_Any_dataOT_St17integral_constantIbLb1EE"(ptr noundef nonnull align 8 dereferenceable(16) %0, ptr noundef nonnull align 1 dereferenceable(1) %1) #0 align 2 !dbg !5030 {
  %3 = alloca %"struct.std::integral_constant", align 1
  %4 = alloca ptr, align 8
  %5 = alloca ptr, align 8
  store ptr %0, ptr %4, align 8
    #dbg_declare(ptr %4, !5034, !DIExpression(), !5035)
  store ptr %1, ptr %5, align 8
    #dbg_declare(ptr %5, !5036, !DIExpression(), !5037)
    #dbg_declare(ptr %3, !5038, !DIExpression(), !5039)
  %6 = load ptr, ptr %4, align 8, !dbg !5040
  %7 = call noundef ptr @_ZNSt9_Any_data9_M_accessEv(ptr noundef nonnull align 8 dereferenceable(16) %6) #12, !dbg !5041
  %8 = load ptr, ptr %5, align 8, !dbg !5042
  ret void, !dbg !5043
}

; Function Attrs: mustprogress noinline nounwind optnone uwtable
define linkonce_odr dso_local noundef ptr @_ZNSt9_Any_data9_M_accessEv(ptr noundef nonnull align 8 dereferenceable(16) %0) #0 comdat align 2 !dbg !5044 {
  %2 = alloca ptr, align 8
  store ptr %0, ptr %2, align 8
    #dbg_declare(ptr %2, !5045, !DIExpression(), !5047)
  %3 = load ptr, ptr %2, align 8
  %4 = getelementptr inbounds [16 x i8], ptr %3, i64 0, i64 0, !dbg !5048
  ret ptr %4, !dbg !5049
}

; Function Attrs: mustprogress noinline nounwind optnone uwtable
define internal noundef zeroext i1 @"_ZSt10__invoke_rIbRZZ23getHelloWorldPluginInfovENK3$_0clERN4llvm11PassBuilderEEUlNS1_9StringRefERNS1_11PassManagerINS1_8FunctionENS1_15AnalysisManagerIS6_JEEEJEEENS1_8ArrayRefINS2_15PipelineElementEEEE_JS4_SA_SD_EENSt9enable_ifIX16is_invocable_r_vIT_T0_DpT1_EESH_E4typeEOSI_DpOSJ_"(ptr noundef nonnull align 1 dereferenceable(1) %0, ptr noundef nonnull align 8 dereferenceable(16) %1, ptr noundef nonnull align 8 dereferenceable(24) %2, ptr noundef nonnull align 8 dereferenceable(16) %3) #0 !dbg !948 {
  %5 = alloca ptr, align 8
  %6 = alloca ptr, align 8
  %7 = alloca ptr, align 8
  %8 = alloca ptr, align 8
  %9 = alloca %"struct.std::__invoke_other", align 1
  store ptr %0, ptr %5, align 8
    #dbg_declare(ptr %5, !5050, !DIExpression(), !5051)
  store ptr %1, ptr %6, align 8
    #dbg_declare(ptr %6, !5052, !DIExpression(), !5053)
  store ptr %2, ptr %7, align 8
    #dbg_declare(ptr %7, !5054, !DIExpression(), !5053)
  store ptr %3, ptr %8, align 8
    #dbg_declare(ptr %8, !5055, !DIExpression(), !5053)
  %10 = load ptr, ptr %5, align 8, !dbg !5056
  %11 = load ptr, ptr %6, align 8, !dbg !5058
  %12 = load ptr, ptr %7, align 8, !dbg !5058
  %13 = load ptr, ptr %8, align 8, !dbg !5058
  %14 = call noundef zeroext i1 @"_ZSt13__invoke_implIbRZZ23getHelloWorldPluginInfovENK3$_0clERN4llvm11PassBuilderEEUlNS1_9StringRefERNS1_11PassManagerINS1_8FunctionENS1_15AnalysisManagerIS6_JEEEJEEENS1_8ArrayRefINS2_15PipelineElementEEEE_JS4_SA_SD_EET_St14__invoke_otherOT0_DpOT1_"(ptr noundef nonnull align 1 dereferenceable(1) %10, ptr noundef nonnull align 8 dereferenceable(16) %11, ptr noundef nonnull align 8 dereferenceable(24) %12, ptr noundef nonnull align 8 dereferenceable(16) %13), !dbg !5059
  ret i1 %14, !dbg !5060
}

; Function Attrs: mustprogress noinline nounwind optnone uwtable
define internal noundef ptr @"_ZNSt14_Function_base13_Base_managerIZZ23getHelloWorldPluginInfovENK3$_0clERN4llvm11PassBuilderEEUlNS2_9StringRefERNS2_11PassManagerINS2_8FunctionENS2_15AnalysisManagerIS7_JEEEJEEENS2_8ArrayRefINS3_15PipelineElementEEEE_E14_M_get_pointerERKSt9_Any_data"(ptr noundef nonnull align 8 dereferenceable(16) %0) #0 align 2 !dbg !5061 {
  %2 = alloca ptr, align 8
  %3 = alloca ptr, align 8
  store ptr %0, ptr %2, align 8
    #dbg_declare(ptr %2, !5062, !DIExpression(), !5063)
    #dbg_declare(ptr %3, !5064, !DIExpression(), !5067)
  %4 = load ptr, ptr %2, align 8, !dbg !5068
  %5 = call noundef nonnull align 1 dereferenceable(1) ptr @"_ZNKSt9_Any_data9_M_accessIZZ23getHelloWorldPluginInfovENK3$_0clERN4llvm11PassBuilderEEUlNS2_9StringRefERNS2_11PassManagerINS2_8FunctionENS2_15AnalysisManagerIS7_JEEEJEEENS2_8ArrayRefINS3_15PipelineElementEEEE_EERKT_v"(ptr noundef nonnull align 8 dereferenceable(16) %4) #12, !dbg !5069
  store ptr %5, ptr %3, align 8, !dbg !5067
  %6 = load ptr, ptr %3, align 8, !dbg !5070
  ret ptr %6, !dbg !5071
}

; Function Attrs: mustprogress noinline nounwind optnone uwtable
define internal noundef zeroext i1 @"_ZSt13__invoke_implIbRZZ23getHelloWorldPluginInfovENK3$_0clERN4llvm11PassBuilderEEUlNS1_9StringRefERNS1_11PassManagerINS1_8FunctionENS1_15AnalysisManagerIS6_JEEEJEEENS1_8ArrayRefINS2_15PipelineElementEEEE_JS4_SA_SD_EET_St14__invoke_otherOT0_DpOT1_"(ptr noundef nonnull align 1 dereferenceable(1) %0, ptr noundef nonnull align 8 dereferenceable(16) %1, ptr noundef nonnull align 8 dereferenceable(24) %2, ptr noundef nonnull align 8 dereferenceable(16) %3) #0 !dbg !5072 {
  %5 = alloca %"struct.std::__invoke_other", align 1
  %6 = alloca ptr, align 8
  %7 = alloca ptr, align 8
  %8 = alloca ptr, align 8
  %9 = alloca ptr, align 8
  %10 = alloca %"class.llvm::StringRef", align 8
  %11 = alloca %"class.llvm::ArrayRef", align 8
    #dbg_declare(ptr %5, !5077, !DIExpression(), !5078)
  store ptr %0, ptr %6, align 8
    #dbg_declare(ptr %6, !5079, !DIExpression(), !5080)
  store ptr %1, ptr %7, align 8
    #dbg_declare(ptr %7, !5081, !DIExpression(), !5082)
  store ptr %2, ptr %8, align 8
    #dbg_declare(ptr %8, !5083, !DIExpression(), !5082)
  store ptr %3, ptr %9, align 8
    #dbg_declare(ptr %9, !5084, !DIExpression(), !5082)
  %12 = load ptr, ptr %6, align 8, !dbg !5085
  %13 = load ptr, ptr %7, align 8, !dbg !5086
  call void @llvm.memcpy.p0.p0.i64(ptr align 8 %10, ptr align 8 %13, i64 16, i1 false), !dbg !5087
  %14 = load ptr, ptr %8, align 8, !dbg !5086
  %15 = load ptr, ptr %9, align 8, !dbg !5086
  call void @llvm.memcpy.p0.p0.i64(ptr align 8 %11, ptr align 8 %15, i64 16, i1 false), !dbg !5087
  %16 = getelementptr inbounds { ptr, i64 }, ptr %10, i32 0, i32 0, !dbg !5088
  %17 = load ptr, ptr %16, align 8, !dbg !5088
  %18 = getelementptr inbounds { ptr, i64 }, ptr %10, i32 0, i32 1, !dbg !5088
  %19 = load i64, ptr %18, align 8, !dbg !5088
  %20 = getelementptr inbounds { ptr, i64 }, ptr %11, i32 0, i32 0, !dbg !5088
  %21 = load ptr, ptr %20, align 8, !dbg !5088
  %22 = getelementptr inbounds { ptr, i64 }, ptr %11, i32 0, i32 1, !dbg !5088
  %23 = load i64, ptr %22, align 8, !dbg !5088
  %24 = call noundef zeroext i1 @"_ZZZ23getHelloWorldPluginInfovENK3$_0clERN4llvm11PassBuilderEENKUlNS0_9StringRefERNS0_11PassManagerINS0_8FunctionENS0_15AnalysisManagerIS5_JEEEJEEENS0_8ArrayRefINS1_15PipelineElementEEEE_clES3_S9_SC_"(ptr noundef nonnull align 1 dereferenceable(1) %12, ptr %17, i64 %19, ptr noundef nonnull align 8 dereferenceable(24) %14, ptr %21, i64 %23), !dbg !5088
  ret i1 %24, !dbg !5089
}

; Function Attrs: mustprogress noinline nounwind optnone uwtable
define internal noundef zeroext i1 @"_ZZZ23getHelloWorldPluginInfovENK3$_0clERN4llvm11PassBuilderEENKUlNS0_9StringRefERNS0_11PassManagerINS0_8FunctionENS0_15AnalysisManagerIS5_JEEEJEEENS0_8ArrayRefINS1_15PipelineElementEEEE_clES3_S9_SC_"(ptr noundef nonnull align 1 dereferenceable(1) %0, ptr %1, i64 %2, ptr noundef nonnull align 8 dereferenceable(24) %3, ptr %4, i64 %5) #0 align 2 !dbg !5090 {
  %7 = alloca i1, align 1
  %8 = alloca %"class.llvm::StringRef", align 8
  %9 = alloca %"class.llvm::ArrayRef", align 8
  %10 = alloca ptr, align 8
  %11 = alloca ptr, align 8
  %12 = alloca %"class.llvm::StringRef", align 8
  %13 = alloca %"class.llvm::StringRef", align 8
  %14 = alloca %"class.llvm::LoopSimplifyPass", align 1
  %15 = alloca %"struct.(anonymous namespace)::LoopPass", align 1
  %16 = getelementptr inbounds { ptr, i64 }, ptr %8, i32 0, i32 0
  store ptr %1, ptr %16, align 8
  %17 = getelementptr inbounds { ptr, i64 }, ptr %8, i32 0, i32 1
  store i64 %2, ptr %17, align 8
  %18 = getelementptr inbounds { ptr, i64 }, ptr %9, i32 0, i32 0
  store ptr %4, ptr %18, align 8
  %19 = getelementptr inbounds { ptr, i64 }, ptr %9, i32 0, i32 1
  store i64 %5, ptr %19, align 8
  store ptr %0, ptr %10, align 8
    #dbg_declare(ptr %10, !5097, !DIExpression(), !5098)
    #dbg_declare(ptr %8, !5099, !DIExpression(), !5100)
  store ptr %3, ptr %11, align 8
    #dbg_declare(ptr %11, !5101, !DIExpression(), !5102)
    #dbg_declare(ptr %9, !5103, !DIExpression(), !5104)
  %20 = load ptr, ptr %10, align 8
  call void @llvm.memcpy.p0.p0.i64(ptr align 8 %12, ptr align 8 %8, i64 16, i1 false), !dbg !5105
  call void @_ZN4llvm9StringRefC2EPKc(ptr noundef nonnull align 8 dereferenceable(16) %13, ptr noundef @.str.2), !dbg !5107
  %21 = getelementptr inbounds { ptr, i64 }, ptr %12, i32 0, i32 0, !dbg !5108
  %22 = load ptr, ptr %21, align 8, !dbg !5108
  %23 = getelementptr inbounds { ptr, i64 }, ptr %12, i32 0, i32 1, !dbg !5108
  %24 = load i64, ptr %23, align 8, !dbg !5108
  %25 = getelementptr inbounds { ptr, i64 }, ptr %13, i32 0, i32 0, !dbg !5108
  %26 = load ptr, ptr %25, align 8, !dbg !5108
  %27 = getelementptr inbounds { ptr, i64 }, ptr %13, i32 0, i32 1, !dbg !5108
  %28 = load i64, ptr %27, align 8, !dbg !5108
  %29 = call noundef zeroext i1 @_ZN4llvmeqENS_9StringRefES0_(ptr %22, i64 %24, ptr %26, i64 %28), !dbg !5108
  br i1 %29, label %30, label %33, !dbg !5109

30:                                               ; preds = %6
  %31 = load ptr, ptr %11, align 8, !dbg !5110
  call void @_ZN4llvm11PassManagerINS_8FunctionENS_15AnalysisManagerIS1_JEEEJEE7addPassINS_16LoopSimplifyPassEEENSt9enable_ifIXntsr3stdE9is_same_vIT_S4_EEvE4typeEOS8_(ptr noundef nonnull align 8 dereferenceable(24) %31, ptr noundef nonnull align 1 dereferenceable(1) %14), !dbg !5112
  %32 = load ptr, ptr %11, align 8, !dbg !5113
  call void @_ZN4llvm11PassManagerINS_8FunctionENS_15AnalysisManagerIS1_JEEEJEE7addPassIN12_GLOBAL__N_18LoopPassEEENSt9enable_ifIXntsr3stdE9is_same_vIT_S4_EEvE4typeEOS9_(ptr noundef nonnull align 8 dereferenceable(24) %32, ptr noundef nonnull align 1 dereferenceable(1) %15), !dbg !5114
  store i1 true, ptr %7, align 1, !dbg !5115
  br label %34, !dbg !5115

33:                                               ; preds = %6
  store i1 false, ptr %7, align 1, !dbg !5116
  br label %34, !dbg !5116

34:                                               ; preds = %33, %30
  %35 = load i1, ptr %7, align 1, !dbg !5117
  ret i1 %35, !dbg !5117
}

; Function Attrs: mustprogress noinline nounwind optnone uwtable
define linkonce_odr dso_local noundef zeroext i1 @_ZN4llvmeqENS_9StringRefES0_(ptr %0, i64 %1, ptr %2, i64 %3) #0 comdat !dbg !5118 {
  %5 = alloca i1, align 1
  %6 = alloca %"class.llvm::StringRef", align 8
  %7 = alloca %"class.llvm::StringRef", align 8
  %8 = getelementptr inbounds { ptr, i64 }, ptr %6, i32 0, i32 0
  store ptr %0, ptr %8, align 8
  %9 = getelementptr inbounds { ptr, i64 }, ptr %6, i32 0, i32 1
  store i64 %1, ptr %9, align 8
  %10 = getelementptr inbounds { ptr, i64 }, ptr %7, i32 0, i32 0
  store ptr %2, ptr %10, align 8
  %11 = getelementptr inbounds { ptr, i64 }, ptr %7, i32 0, i32 1
  store i64 %3, ptr %11, align 8
    #dbg_declare(ptr %6, !5121, !DIExpression(), !5122)
    #dbg_declare(ptr %7, !5123, !DIExpression(), !5124)
  %12 = call noundef i64 @_ZNK4llvm9StringRef4sizeEv(ptr noundef nonnull align 8 dereferenceable(16) %6), !dbg !5125
  %13 = call noundef i64 @_ZNK4llvm9StringRef4sizeEv(ptr noundef nonnull align 8 dereferenceable(16) %7), !dbg !5127
  %14 = icmp ne i64 %12, %13, !dbg !5128
  br i1 %14, label %15, label %16, !dbg !5129

15:                                               ; preds = %4
  store i1 false, ptr %5, align 1, !dbg !5130
  br label %25, !dbg !5130

16:                                               ; preds = %4
  %17 = call noundef zeroext i1 @_ZNK4llvm9StringRef5emptyEv(ptr noundef nonnull align 8 dereferenceable(16) %6), !dbg !5131
  br i1 %17, label %18, label %19, !dbg !5133

18:                                               ; preds = %16
  store i1 true, ptr %5, align 1, !dbg !5134
  br label %25, !dbg !5134

19:                                               ; preds = %16
  %20 = call noundef ptr @_ZNK4llvm9StringRef4dataEv(ptr noundef nonnull align 8 dereferenceable(16) %6), !dbg !5135
  %21 = call noundef ptr @_ZNK4llvm9StringRef4dataEv(ptr noundef nonnull align 8 dereferenceable(16) %7), !dbg !5136
  %22 = call noundef i64 @_ZNK4llvm9StringRef4sizeEv(ptr noundef nonnull align 8 dereferenceable(16) %6), !dbg !5137
  %23 = call i32 @memcmp(ptr noundef %20, ptr noundef %21, i64 noundef %22) #13, !dbg !5138
  %24 = icmp eq i32 %23, 0, !dbg !5139
  store i1 %24, ptr %5, align 1, !dbg !5140
  br label %25, !dbg !5140

25:                                               ; preds = %19, %18, %15
  %26 = load i1, ptr %5, align 1, !dbg !5141
  ret i1 %26, !dbg !5141
}

; Function Attrs: mustprogress noinline nounwind optnone uwtable
define linkonce_odr dso_local void @_ZN4llvm9StringRefC2EPKc(ptr noundef nonnull align 8 dereferenceable(16) %0, ptr noundef %1) unnamed_addr #0 comdat align 2 !dbg !5142 {
  %3 = alloca ptr, align 8
  %4 = alloca ptr, align 8
  store ptr %0, ptr %3, align 8
    #dbg_declare(ptr %3, !5143, !DIExpression(), !5145)
  store ptr %1, ptr %4, align 8
    #dbg_declare(ptr %4, !5146, !DIExpression(), !5147)
  %5 = load ptr, ptr %3, align 8
  %6 = getelementptr inbounds %"class.llvm::StringRef", ptr %5, i32 0, i32 0, !dbg !5148
  %7 = load ptr, ptr %4, align 8, !dbg !5149
  store ptr %7, ptr %6, align 8, !dbg !5148
  %8 = getelementptr inbounds %"class.llvm::StringRef", ptr %5, i32 0, i32 1, !dbg !5150
  %9 = load ptr, ptr %4, align 8, !dbg !5151
  %10 = icmp ne ptr %9, null, !dbg !5151
  br i1 %10, label %11, label %14, !dbg !5151

11:                                               ; preds = %2
  %12 = load ptr, ptr %4, align 8, !dbg !5152
  %13 = call noundef i64 @_ZNSt11char_traitsIcE6lengthEPKc(ptr noundef %12), !dbg !5153
  br label %15, !dbg !5151

14:                                               ; preds = %2
  br label %15, !dbg !5151

15:                                               ; preds = %14, %11
  %16 = phi i64 [ %13, %11 ], [ 0, %14 ], !dbg !5151
  store i64 %16, ptr %8, align 8, !dbg !5150
  ret void, !dbg !5154
}

; Function Attrs: minsize mustprogress noinline nounwind uwtable
define linkonce_odr dso_local void @_ZN4llvm11PassManagerINS_8FunctionENS_15AnalysisManagerIS1_JEEEJEE7addPassINS_16LoopSimplifyPassEEENSt9enable_ifIXntsr3stdE9is_same_vIT_S4_EEvE4typeEOS8_(ptr noundef nonnull align 8 dereferenceable(24) %0, ptr noundef nonnull align 1 dereferenceable(1) %1) #5 comdat align 2 !dbg !5155 {
  %3 = alloca ptr, align 8
  %4 = alloca ptr, align 8
  %5 = alloca %"class.std::unique_ptr", align 8
  %6 = alloca %"class.llvm::LoopSimplifyPass", align 1
  store ptr %0, ptr %3, align 8
    #dbg_declare(ptr %3, !5184, !DIExpression(), !5186)
  store ptr %1, ptr %4, align 8
    #dbg_declare(ptr %4, !5187, !DIExpression(), !5188)
  %7 = load ptr, ptr %3, align 8
  %8 = getelementptr inbounds %"class.llvm::PassManager", ptr %7, i32 0, i32 0, !dbg !5189
  %9 = call noalias noundef nonnull ptr @_Znwm(i64 noundef 16) #14, !dbg !5190, !heapallocsite !5191
  %10 = load ptr, ptr %4, align 8, !dbg !5227
  call void @_ZN4llvm6detail9PassModelINS_8FunctionENS_16LoopSimplifyPassENS_15AnalysisManagerIS2_JEEEJEEC2ES3_(ptr noundef nonnull align 8 dereferenceable(9) %9), !dbg !5228
  call void @_ZNSt10unique_ptrIN4llvm6detail11PassConceptINS0_8FunctionENS0_15AnalysisManagerIS3_JEEEJEEESt14default_deleteIS6_EEC2IS8_vEEPS6_(ptr noundef nonnull align 8 dereferenceable(8) %5, ptr noundef %9) #12, !dbg !5229
  call void @_ZNSt6vectorISt10unique_ptrIN4llvm6detail11PassConceptINS1_8FunctionENS1_15AnalysisManagerIS4_JEEEJEEESt14default_deleteIS7_EESaISA_EE9push_backEOSA_(ptr noundef nonnull align 8 dereferenceable(24) %8, ptr noundef nonnull align 8 dereferenceable(8) %5), !dbg !5230
  call void @_ZNSt10unique_ptrIN4llvm6detail11PassConceptINS0_8FunctionENS0_15AnalysisManagerIS3_JEEEJEEESt14default_deleteIS6_EED2Ev(ptr noundef nonnull align 8 dereferenceable(8) %5) #12, !dbg !5189
  ret void, !dbg !5231
}

; Function Attrs: minsize mustprogress noinline nounwind uwtable
define internal void @_ZN4llvm11PassManagerINS_8FunctionENS_15AnalysisManagerIS1_JEEEJEE7addPassIN12_GLOBAL__N_18LoopPassEEENSt9enable_ifIXntsr3stdE9is_same_vIT_S4_EEvE4typeEOS9_(ptr noundef nonnull align 8 dereferenceable(24) %0, ptr noundef nonnull align 1 dereferenceable(1) %1) #5 align 2 !dbg !5232 {
  %3 = alloca ptr, align 8
  %4 = alloca ptr, align 8
  %5 = alloca %"class.std::unique_ptr", align 8
  %6 = alloca %"struct.(anonymous namespace)::LoopPass", align 1
  store ptr %0, ptr %3, align 8
    #dbg_declare(ptr %3, !5240, !DIExpression(), !5241)
  store ptr %1, ptr %4, align 8
    #dbg_declare(ptr %4, !5242, !DIExpression(), !5243)
  %7 = load ptr, ptr %3, align 8
  %8 = getelementptr inbounds %"class.llvm::PassManager", ptr %7, i32 0, i32 0, !dbg !5244
  %9 = call noalias noundef nonnull ptr @_Znwm(i64 noundef 16) #14, !dbg !5245, !heapallocsite !5246
  %10 = load ptr, ptr %4, align 8, !dbg !5282
  call void @_ZN4llvm6detail9PassModelINS_8FunctionEN12_GLOBAL__N_18LoopPassENS_15AnalysisManagerIS2_JEEEJEEC2ES4_(ptr noundef nonnull align 8 dereferenceable(9) %9), !dbg !5283
  call void @_ZNSt10unique_ptrIN4llvm6detail11PassConceptINS0_8FunctionENS0_15AnalysisManagerIS3_JEEEJEEESt14default_deleteIS6_EEC2IS8_vEEPS6_(ptr noundef nonnull align 8 dereferenceable(8) %5, ptr noundef %9) #12, !dbg !5284
  call void @_ZNSt6vectorISt10unique_ptrIN4llvm6detail11PassConceptINS1_8FunctionENS1_15AnalysisManagerIS4_JEEEJEEESt14default_deleteIS7_EESaISA_EE9push_backEOSA_(ptr noundef nonnull align 8 dereferenceable(24) %8, ptr noundef nonnull align 8 dereferenceable(8) %5), !dbg !5285
  call void @_ZNSt10unique_ptrIN4llvm6detail11PassConceptINS0_8FunctionENS0_15AnalysisManagerIS3_JEEEJEEESt14default_deleteIS6_EED2Ev(ptr noundef nonnull align 8 dereferenceable(8) %5) #12, !dbg !5244
  ret void, !dbg !5286
}

; Function Attrs: mustprogress noinline nounwind optnone uwtable
define linkonce_odr dso_local noundef i64 @_ZNK4llvm9StringRef4sizeEv(ptr noundef nonnull align 8 dereferenceable(16) %0) #0 comdat align 2 !dbg !5287 {
  %2 = alloca ptr, align 8
  store ptr %0, ptr %2, align 8
    #dbg_declare(ptr %2, !5288, !DIExpression(), !5290)
  %3 = load ptr, ptr %2, align 8
  %4 = getelementptr inbounds %"class.llvm::StringRef", ptr %3, i32 0, i32 1, !dbg !5291
  %5 = load i64, ptr %4, align 8, !dbg !5291
  ret i64 %5, !dbg !5292
}

; Function Attrs: mustprogress noinline nounwind optnone uwtable
define linkonce_odr dso_local noundef zeroext i1 @_ZNK4llvm9StringRef5emptyEv(ptr noundef nonnull align 8 dereferenceable(16) %0) #0 comdat align 2 !dbg !5293 {
  %2 = alloca ptr, align 8
  store ptr %0, ptr %2, align 8
    #dbg_declare(ptr %2, !5294, !DIExpression(), !5295)
  %3 = load ptr, ptr %2, align 8
  %4 = getelementptr inbounds %"class.llvm::StringRef", ptr %3, i32 0, i32 1, !dbg !5296
  %5 = load i64, ptr %4, align 8, !dbg !5296
  %6 = icmp eq i64 %5, 0, !dbg !5297
  ret i1 %6, !dbg !5298
}

; Function Attrs: nounwind willreturn memory(read)
declare i32 @memcmp(ptr noundef, ptr noundef, i64 noundef) #6

; Function Attrs: mustprogress noinline nounwind optnone uwtable
define linkonce_odr dso_local noundef ptr @_ZNK4llvm9StringRef4dataEv(ptr noundef nonnull align 8 dereferenceable(16) %0) #0 comdat align 2 !dbg !5299 {
  %2 = alloca ptr, align 8
  store ptr %0, ptr %2, align 8
    #dbg_declare(ptr %2, !5300, !DIExpression(), !5301)
  %3 = load ptr, ptr %2, align 8
  %4 = getelementptr inbounds %"class.llvm::StringRef", ptr %3, i32 0, i32 0, !dbg !5302
  %5 = load ptr, ptr %4, align 8, !dbg !5302
  ret ptr %5, !dbg !5303
}

; Function Attrs: mustprogress noinline nounwind optnone uwtable
define linkonce_odr dso_local noundef i64 @_ZNSt11char_traitsIcE6lengthEPKc(ptr noundef %0) #0 comdat align 2 !dbg !5304 {
  %2 = alloca ptr, align 8
  store ptr %0, ptr %2, align 8
    #dbg_declare(ptr %2, !5305, !DIExpression(), !5306)
  %3 = load ptr, ptr %2, align 8, !dbg !5307
  %4 = call i64 @strlen(ptr noundef %3) #12, !dbg !5308
  ret i64 %4, !dbg !5309
}

; Function Attrs: nounwind
declare i64 @strlen(ptr noundef) #4

; Function Attrs: mustprogress noinline nounwind optnone uwtable
define linkonce_odr dso_local void @_ZNSt6vectorISt10unique_ptrIN4llvm6detail11PassConceptINS1_8FunctionENS1_15AnalysisManagerIS4_JEEEJEEESt14default_deleteIS7_EESaISA_EE9push_backEOSA_(ptr noundef nonnull align 8 dereferenceable(24) %0, ptr noundef nonnull align 8 dereferenceable(8) %1) #0 comdat align 2 !dbg !5310 {
  %3 = alloca ptr, align 8
  %4 = alloca ptr, align 8
  store ptr %0, ptr %3, align 8
    #dbg_declare(ptr %3, !5317, !DIExpression(), !5319)
  store ptr %1, ptr %4, align 8
    #dbg_declare(ptr %4, !5320, !DIExpression(), !5321)
  %5 = load ptr, ptr %3, align 8
  %6 = load ptr, ptr %4, align 8, !dbg !5322
  %7 = call noundef nonnull align 8 dereferenceable(8) ptr @_ZNSt6vectorISt10unique_ptrIN4llvm6detail11PassConceptINS1_8FunctionENS1_15AnalysisManagerIS4_JEEEJEEESt14default_deleteIS7_EESaISA_EE12emplace_backIJSA_EEERSA_DpOT_(ptr noundef nonnull align 8 dereferenceable(24) %5, ptr noundef nonnull align 8 dereferenceable(8) %6), !dbg !5323
  ret void, !dbg !5324
}

; Function Attrs: nobuiltin allocsize(0)
declare noundef nonnull ptr @_Znwm(i64 noundef) #7

; Function Attrs: mustprogress noinline nounwind optnone uwtable
define linkonce_odr dso_local void @_ZN4llvm6detail9PassModelINS_8FunctionENS_16LoopSimplifyPassENS_15AnalysisManagerIS2_JEEEJEEC2ES3_(ptr noundef nonnull align 8 dereferenceable(9) %0) unnamed_addr #0 comdat align 2 !dbg !5325 {
  %2 = alloca %"class.llvm::LoopSimplifyPass", align 1
  %3 = alloca ptr, align 8
  store ptr %0, ptr %3, align 8
    #dbg_declare(ptr %3, !5326, !DIExpression(), !5328)
    #dbg_declare(ptr %2, !5329, !DIExpression(), !5330)
  %4 = load ptr, ptr %3, align 8
  call void @_ZN4llvm6detail11PassConceptINS_8FunctionENS_15AnalysisManagerIS2_JEEEJEEC2Ev(ptr noundef nonnull align 8 dereferenceable(8) %4) #12, !dbg !5331
  store ptr getelementptr inbounds inrange(-16, 48) ({ [8 x ptr] }, ptr @_ZTVN4llvm6detail9PassModelINS_8FunctionENS_16LoopSimplifyPassENS_15AnalysisManagerIS2_JEEEJEEE, i32 0, i32 0, i32 2), ptr %4, align 8, !dbg !5332
  %5 = getelementptr inbounds i8, ptr %4, i64 8, !dbg !5333
  ret void, !dbg !5334
}

; Function Attrs: mustprogress noinline nounwind optnone uwtable
define linkonce_odr dso_local void @_ZNSt10unique_ptrIN4llvm6detail11PassConceptINS0_8FunctionENS0_15AnalysisManagerIS3_JEEEJEEESt14default_deleteIS6_EEC2IS8_vEEPS6_(ptr noundef nonnull align 8 dereferenceable(8) %0, ptr noundef %1) unnamed_addr #0 comdat align 2 !dbg !5335 {
  %3 = alloca ptr, align 8
  %4 = alloca ptr, align 8
  store ptr %0, ptr %3, align 8
    #dbg_declare(ptr %3, !5340, !DIExpression(), !5341)
  store ptr %1, ptr %4, align 8
    #dbg_declare(ptr %4, !5342, !DIExpression(), !5343)
  %5 = load ptr, ptr %3, align 8
  %6 = getelementptr inbounds %"class.std::unique_ptr", ptr %5, i32 0, i32 0, !dbg !5344
  %7 = load ptr, ptr %4, align 8, !dbg !5345
  call void @_ZNSt15__uniq_ptr_dataIN4llvm6detail11PassConceptINS0_8FunctionENS0_15AnalysisManagerIS3_JEEEJEEESt14default_deleteIS6_ELb1ELb1EECI2St15__uniq_ptr_implIS6_S8_EEPS6_(ptr noundef nonnull align 8 dereferenceable(8) %6, ptr noundef %7), !dbg !5344
  ret void, !dbg !5346
}

; Function Attrs: mustprogress noinline nounwind optnone uwtable
define linkonce_odr dso_local void @_ZNSt10unique_ptrIN4llvm6detail11PassConceptINS0_8FunctionENS0_15AnalysisManagerIS3_JEEEJEEESt14default_deleteIS6_EED2Ev(ptr noundef nonnull align 8 dereferenceable(8) %0) unnamed_addr #0 comdat align 2 !dbg !5347 {
  %2 = alloca ptr, align 8
  %3 = alloca ptr, align 8
  store ptr %0, ptr %2, align 8
    #dbg_declare(ptr %2, !5348, !DIExpression(), !5349)
  %4 = load ptr, ptr %2, align 8
    #dbg_declare(ptr %3, !5350, !DIExpression(), !5352)
  %5 = getelementptr inbounds %"class.std::unique_ptr", ptr %4, i32 0, i32 0, !dbg !5353
  %6 = call noundef nonnull align 8 dereferenceable(8) ptr @_ZNSt15__uniq_ptr_implIN4llvm6detail11PassConceptINS0_8FunctionENS0_15AnalysisManagerIS3_JEEEJEEESt14default_deleteIS6_EE6_M_ptrEv(ptr noundef nonnull align 8 dereferenceable(8) %5) #12, !dbg !5354
  store ptr %6, ptr %3, align 8, !dbg !5352
  %7 = load ptr, ptr %3, align 8, !dbg !5355
  %8 = load ptr, ptr %7, align 8, !dbg !5355
  %9 = icmp ne ptr %8, null, !dbg !5357
  br i1 %9, label %10, label %14, !dbg !5358

10:                                               ; preds = %1
  %11 = call noundef nonnull align 1 dereferenceable(1) ptr @_ZNSt10unique_ptrIN4llvm6detail11PassConceptINS0_8FunctionENS0_15AnalysisManagerIS3_JEEEJEEESt14default_deleteIS6_EE11get_deleterEv(ptr noundef nonnull align 8 dereferenceable(8) %4) #12, !dbg !5359
  %12 = load ptr, ptr %3, align 8, !dbg !5360
  %13 = load ptr, ptr %12, align 8, !dbg !5361
  call void @_ZNKSt14default_deleteIN4llvm6detail11PassConceptINS0_8FunctionENS0_15AnalysisManagerIS3_JEEEJEEEEclEPS6_(ptr noundef nonnull align 1 dereferenceable(1) %11, ptr noundef %13), !dbg !5359
  br label %14, !dbg !5359

14:                                               ; preds = %10, %1
  %15 = load ptr, ptr %3, align 8, !dbg !5362
  store ptr null, ptr %15, align 8, !dbg !5363
  ret void, !dbg !5364
}

; Function Attrs: mustprogress noinline nounwind optnone uwtable
define linkonce_odr dso_local noundef nonnull align 8 dereferenceable(8) ptr @_ZNSt6vectorISt10unique_ptrIN4llvm6detail11PassConceptINS1_8FunctionENS1_15AnalysisManagerIS4_JEEEJEEESt14default_deleteIS7_EESaISA_EE12emplace_backIJSA_EEERSA_DpOT_(ptr noundef nonnull align 8 dereferenceable(24) %0, ptr noundef nonnull align 8 dereferenceable(8) %1) #0 comdat align 2 !dbg !5365 {
  %3 = alloca ptr, align 8
  %4 = alloca ptr, align 8
  %5 = alloca ptr, align 8
  %6 = alloca ptr, align 8
  %7 = alloca ptr, align 8
  %8 = alloca ptr, align 8
  %9 = alloca ptr, align 8
  %10 = alloca ptr, align 8
  %11 = alloca %"class.__gnu_cxx::__normal_iterator", align 8
  store ptr %0, ptr %9, align 8
    #dbg_declare(ptr %9, !5427, !DIExpression(), !5428)
  store ptr %1, ptr %10, align 8
    #dbg_declare(ptr %10, !5429, !DIExpression(), !5430)
  %12 = load ptr, ptr %9, align 8
  %13 = getelementptr inbounds %"struct.std::_Vector_base", ptr %12, i32 0, i32 0, !dbg !5431
  %14 = getelementptr inbounds %"struct.std::_Vector_base<std::unique_ptr<llvm::detail::PassConcept<llvm::Function, llvm::AnalysisManager<Function>>>, std::allocator<std::unique_ptr<llvm::detail::PassConcept<llvm::Function, llvm::AnalysisManager<Function>>>>>::_Vector_impl_data", ptr %13, i32 0, i32 1, !dbg !5433
  %15 = load ptr, ptr %14, align 8, !dbg !5433
  %16 = getelementptr inbounds %"struct.std::_Vector_base", ptr %12, i32 0, i32 0, !dbg !5434
  %17 = getelementptr inbounds %"struct.std::_Vector_base<std::unique_ptr<llvm::detail::PassConcept<llvm::Function, llvm::AnalysisManager<Function>>>, std::allocator<std::unique_ptr<llvm::detail::PassConcept<llvm::Function, llvm::AnalysisManager<Function>>>>>::_Vector_impl_data", ptr %16, i32 0, i32 2, !dbg !5435
  %18 = load ptr, ptr %17, align 8, !dbg !5435
  %19 = icmp ne ptr %15, %18, !dbg !5436
  br i1 %19, label %20, label %36, !dbg !5437

20:                                               ; preds = %2
  %21 = getelementptr inbounds %"struct.std::_Vector_base", ptr %12, i32 0, i32 0, !dbg !5438
  %22 = getelementptr inbounds %"struct.std::_Vector_base", ptr %12, i32 0, i32 0, !dbg !5440
  %23 = getelementptr inbounds %"struct.std::_Vector_base<std::unique_ptr<llvm::detail::PassConcept<llvm::Function, llvm::AnalysisManager<Function>>>, std::allocator<std::unique_ptr<llvm::detail::PassConcept<llvm::Function, llvm::AnalysisManager<Function>>>>>::_Vector_impl_data", ptr %22, i32 0, i32 1, !dbg !5441
  %24 = load ptr, ptr %23, align 8, !dbg !5441
  %25 = load ptr, ptr %10, align 8, !dbg !5442
  store ptr %21, ptr %6, align 8
    #dbg_declare(ptr %6, !5443, !DIExpression(), !5450)
  store ptr %24, ptr %7, align 8
    #dbg_declare(ptr %7, !5452, !DIExpression(), !5453)
  store ptr %25, ptr %8, align 8
    #dbg_declare(ptr %8, !5454, !DIExpression(), !5455)
  %26 = load ptr, ptr %6, align 8, !dbg !5456
  %27 = load ptr, ptr %7, align 8, !dbg !5457
  %28 = load ptr, ptr %8, align 8, !dbg !5458
  store ptr %26, ptr %3, align 8
    #dbg_declare(ptr %3, !5459, !DIExpression(), !5467)
  store ptr %27, ptr %4, align 8
    #dbg_declare(ptr %4, !5469, !DIExpression(), !5470)
  store ptr %28, ptr %5, align 8
    #dbg_declare(ptr %5, !5471, !DIExpression(), !5472)
  %29 = load ptr, ptr %3, align 8
  %30 = load ptr, ptr %4, align 8, !dbg !5473
  %31 = load ptr, ptr %5, align 8, !dbg !5474
  call void @_ZNSt10unique_ptrIN4llvm6detail11PassConceptINS0_8FunctionENS0_15AnalysisManagerIS3_JEEEJEEESt14default_deleteIS6_EEC2EOS9_(ptr noundef nonnull align 8 dereferenceable(8) %30, ptr noundef nonnull align 8 dereferenceable(8) %31) #12, !dbg !5475
  %32 = getelementptr inbounds %"struct.std::_Vector_base", ptr %12, i32 0, i32 0, !dbg !5476
  %33 = getelementptr inbounds %"struct.std::_Vector_base<std::unique_ptr<llvm::detail::PassConcept<llvm::Function, llvm::AnalysisManager<Function>>>, std::allocator<std::unique_ptr<llvm::detail::PassConcept<llvm::Function, llvm::AnalysisManager<Function>>>>>::_Vector_impl_data", ptr %32, i32 0, i32 1, !dbg !5477
  %34 = load ptr, ptr %33, align 8, !dbg !5478
  %35 = getelementptr inbounds %"class.std::unique_ptr", ptr %34, i32 1, !dbg !5478
  store ptr %35, ptr %33, align 8, !dbg !5478
  br label %42, !dbg !5479

36:                                               ; preds = %2
  %37 = call ptr @_ZNSt6vectorISt10unique_ptrIN4llvm6detail11PassConceptINS1_8FunctionENS1_15AnalysisManagerIS4_JEEEJEEESt14default_deleteIS7_EESaISA_EE3endEv(ptr noundef nonnull align 8 dereferenceable(24) %12) #12, !dbg !5480
  %38 = getelementptr inbounds %"class.__gnu_cxx::__normal_iterator", ptr %11, i32 0, i32 0, !dbg !5480
  store ptr %37, ptr %38, align 8, !dbg !5480
  %39 = load ptr, ptr %10, align 8, !dbg !5481
  %40 = getelementptr inbounds %"class.__gnu_cxx::__normal_iterator", ptr %11, i32 0, i32 0, !dbg !5482
  %41 = load ptr, ptr %40, align 8, !dbg !5482
  call void @_ZNSt6vectorISt10unique_ptrIN4llvm6detail11PassConceptINS1_8FunctionENS1_15AnalysisManagerIS4_JEEEJEEESt14default_deleteIS7_EESaISA_EE17_M_realloc_insertIJSA_EEEvN9__gnu_cxx17__normal_iteratorIPSA_SC_EEDpOT_(ptr noundef nonnull align 8 dereferenceable(24) %12, ptr %41, ptr noundef nonnull align 8 dereferenceable(8) %39), !dbg !5482
  br label %42

42:                                               ; preds = %36, %20
  %43 = call noundef nonnull align 8 dereferenceable(8) ptr @_ZNSt6vectorISt10unique_ptrIN4llvm6detail11PassConceptINS1_8FunctionENS1_15AnalysisManagerIS4_JEEEJEEESt14default_deleteIS7_EESaISA_EE4backEv(ptr noundef nonnull align 8 dereferenceable(24) %12) #12, !dbg !5483
  ret ptr %43, !dbg !5484
}

; Function Attrs: mustprogress noinline nounwind optnone uwtable
define linkonce_odr dso_local void @_ZNSt6vectorISt10unique_ptrIN4llvm6detail11PassConceptINS1_8FunctionENS1_15AnalysisManagerIS4_JEEEJEEESt14default_deleteIS7_EESaISA_EE17_M_realloc_insertIJSA_EEEvN9__gnu_cxx17__normal_iteratorIPSA_SC_EEDpOT_(ptr noundef nonnull align 8 dereferenceable(24) %0, ptr %1, ptr noundef nonnull align 8 dereferenceable(8) %2) #0 comdat align 2 !dbg !5485 {
  %4 = alloca ptr, align 8
  %5 = alloca ptr, align 8
  %6 = alloca ptr, align 8
  %7 = alloca ptr, align 8
  %8 = alloca ptr, align 8
  %9 = alloca ptr, align 8
  %10 = alloca %"class.__gnu_cxx::__normal_iterator", align 8
  %11 = alloca ptr, align 8
  %12 = alloca ptr, align 8
  %13 = alloca i64, align 8
  %14 = alloca ptr, align 8
  %15 = alloca ptr, align 8
  %16 = alloca i64, align 8
  %17 = alloca %"class.__gnu_cxx::__normal_iterator", align 8
  %18 = alloca ptr, align 8
  %19 = alloca ptr, align 8
  %20 = getelementptr inbounds %"class.__gnu_cxx::__normal_iterator", ptr %10, i32 0, i32 0
  store ptr %1, ptr %20, align 8
  store ptr %0, ptr %11, align 8
    #dbg_declare(ptr %11, !5489, !DIExpression(), !5490)
    #dbg_declare(ptr %10, !5491, !DIExpression(), !5492)
  store ptr %2, ptr %12, align 8
    #dbg_declare(ptr %12, !5493, !DIExpression(), !5494)
  %21 = load ptr, ptr %11, align 8
    #dbg_declare(ptr %13, !5495, !DIExpression(), !5497)
  %22 = call noundef i64 @_ZNKSt6vectorISt10unique_ptrIN4llvm6detail11PassConceptINS1_8FunctionENS1_15AnalysisManagerIS4_JEEEJEEESt14default_deleteIS7_EESaISA_EE12_M_check_lenEmPKc(ptr noundef nonnull align 8 dereferenceable(24) %21, i64 noundef 1, ptr noundef @.str.3), !dbg !5498
  store i64 %22, ptr %13, align 8, !dbg !5497
    #dbg_declare(ptr %14, !5499, !DIExpression(), !5504)
  %23 = getelementptr inbounds %"struct.std::_Vector_base", ptr %21, i32 0, i32 0, !dbg !5505
  %24 = getelementptr inbounds %"struct.std::_Vector_base<std::unique_ptr<llvm::detail::PassConcept<llvm::Function, llvm::AnalysisManager<Function>>>, std::allocator<std::unique_ptr<llvm::detail::PassConcept<llvm::Function, llvm::AnalysisManager<Function>>>>>::_Vector_impl_data", ptr %23, i32 0, i32 0, !dbg !5506
  %25 = load ptr, ptr %24, align 8, !dbg !5506
  store ptr %25, ptr %14, align 8, !dbg !5504
    #dbg_declare(ptr %15, !5507, !DIExpression(), !5508)
  %26 = getelementptr inbounds %"struct.std::_Vector_base", ptr %21, i32 0, i32 0, !dbg !5509
  %27 = getelementptr inbounds %"struct.std::_Vector_base<std::unique_ptr<llvm::detail::PassConcept<llvm::Function, llvm::AnalysisManager<Function>>>, std::allocator<std::unique_ptr<llvm::detail::PassConcept<llvm::Function, llvm::AnalysisManager<Function>>>>>::_Vector_impl_data", ptr %26, i32 0, i32 1, !dbg !5510
  %28 = load ptr, ptr %27, align 8, !dbg !5510
  store ptr %28, ptr %15, align 8, !dbg !5508
    #dbg_declare(ptr %16, !5511, !DIExpression(), !5512)
  %29 = call ptr @_ZNSt6vectorISt10unique_ptrIN4llvm6detail11PassConceptINS1_8FunctionENS1_15AnalysisManagerIS4_JEEEJEEESt14default_deleteIS7_EESaISA_EE5beginEv(ptr noundef nonnull align 8 dereferenceable(24) %21) #12, !dbg !5513
  %30 = getelementptr inbounds %"class.__gnu_cxx::__normal_iterator", ptr %17, i32 0, i32 0, !dbg !5513
  store ptr %29, ptr %30, align 8, !dbg !5513
  %31 = call noundef i64 @_ZN9__gnu_cxxmiIPSt10unique_ptrIN4llvm6detail11PassConceptINS2_8FunctionENS2_15AnalysisManagerIS5_JEEEJEEESt14default_deleteIS8_EESt6vectorISB_SaISB_EEEENS_17__normal_iteratorIT_T0_E15difference_typeERKSJ_SM_(ptr noundef nonnull align 8 dereferenceable(8) %10, ptr noundef nonnull align 8 dereferenceable(8) %17) #12, !dbg !5514
  store i64 %31, ptr %16, align 8, !dbg !5512
    #dbg_declare(ptr %18, !5515, !DIExpression(), !5516)
  %32 = load i64, ptr %13, align 8, !dbg !5517
  %33 = call noundef ptr @_ZNSt12_Vector_baseISt10unique_ptrIN4llvm6detail11PassConceptINS1_8FunctionENS1_15AnalysisManagerIS4_JEEEJEEESt14default_deleteIS7_EESaISA_EE11_M_allocateEm(ptr noundef nonnull align 8 dereferenceable(24) %21, i64 noundef %32), !dbg !5518
  store ptr %33, ptr %18, align 8, !dbg !5516
    #dbg_declare(ptr %19, !5519, !DIExpression(), !5520)
  %34 = load ptr, ptr %18, align 8, !dbg !5521
  store ptr %34, ptr %19, align 8, !dbg !5520
  %35 = getelementptr inbounds %"struct.std::_Vector_base", ptr %21, i32 0, i32 0, !dbg !5522
  %36 = load ptr, ptr %18, align 8, !dbg !5525
  %37 = load i64, ptr %16, align 8, !dbg !5526
  %38 = getelementptr inbounds %"class.std::unique_ptr", ptr %36, i64 %37, !dbg !5527
  %39 = load ptr, ptr %12, align 8, !dbg !5528
  store ptr %35, ptr %7, align 8
    #dbg_declare(ptr %7, !5443, !DIExpression(), !5529)
  store ptr %38, ptr %8, align 8
    #dbg_declare(ptr %8, !5452, !DIExpression(), !5531)
  store ptr %39, ptr %9, align 8
    #dbg_declare(ptr %9, !5454, !DIExpression(), !5532)
  %40 = load ptr, ptr %7, align 8, !dbg !5533
  %41 = load ptr, ptr %8, align 8, !dbg !5534
  %42 = load ptr, ptr %9, align 8, !dbg !5535
  store ptr %40, ptr %4, align 8
    #dbg_declare(ptr %4, !5459, !DIExpression(), !5536)
  store ptr %41, ptr %5, align 8
    #dbg_declare(ptr %5, !5469, !DIExpression(), !5538)
  store ptr %42, ptr %6, align 8
    #dbg_declare(ptr %6, !5471, !DIExpression(), !5539)
  %43 = load ptr, ptr %4, align 8
  %44 = load ptr, ptr %5, align 8, !dbg !5540
  %45 = load ptr, ptr %6, align 8, !dbg !5541
  call void @_ZNSt10unique_ptrIN4llvm6detail11PassConceptINS0_8FunctionENS0_15AnalysisManagerIS3_JEEEJEEESt14default_deleteIS6_EEC2EOS9_(ptr noundef nonnull align 8 dereferenceable(8) %44, ptr noundef nonnull align 8 dereferenceable(8) %45) #12, !dbg !5542
  store ptr null, ptr %19, align 8, !dbg !5543
  %46 = load ptr, ptr %14, align 8, !dbg !5544
  %47 = call noundef nonnull align 8 dereferenceable(8) ptr @_ZNK9__gnu_cxx17__normal_iteratorIPSt10unique_ptrIN4llvm6detail11PassConceptINS2_8FunctionENS2_15AnalysisManagerIS5_JEEEJEEESt14default_deleteIS8_EESt6vectorISB_SaISB_EEE4baseEv(ptr noundef nonnull align 8 dereferenceable(8) %10) #12, !dbg !5547
  %48 = load ptr, ptr %47, align 8, !dbg !5547
  %49 = load ptr, ptr %18, align 8, !dbg !5548
  %50 = call noundef nonnull align 1 dereferenceable(1) ptr @_ZNSt12_Vector_baseISt10unique_ptrIN4llvm6detail11PassConceptINS1_8FunctionENS1_15AnalysisManagerIS4_JEEEJEEESt14default_deleteIS7_EESaISA_EE19_M_get_Tp_allocatorEv(ptr noundef nonnull align 8 dereferenceable(24) %21) #12, !dbg !5549
  %51 = call noundef ptr @_ZNSt6vectorISt10unique_ptrIN4llvm6detail11PassConceptINS1_8FunctionENS1_15AnalysisManagerIS4_JEEEJEEESt14default_deleteIS7_EESaISA_EE11_S_relocateEPSA_SD_SD_RSB_(ptr noundef %46, ptr noundef %48, ptr noundef %49, ptr noundef nonnull align 1 dereferenceable(1) %50) #12, !dbg !5550
  store ptr %51, ptr %19, align 8, !dbg !5551
  %52 = load ptr, ptr %19, align 8, !dbg !5552
  %53 = getelementptr inbounds %"class.std::unique_ptr", ptr %52, i32 1, !dbg !5552
  store ptr %53, ptr %19, align 8, !dbg !5552
  %54 = call noundef nonnull align 8 dereferenceable(8) ptr @_ZNK9__gnu_cxx17__normal_iteratorIPSt10unique_ptrIN4llvm6detail11PassConceptINS2_8FunctionENS2_15AnalysisManagerIS5_JEEEJEEESt14default_deleteIS8_EESt6vectorISB_SaISB_EEE4baseEv(ptr noundef nonnull align 8 dereferenceable(8) %10) #12, !dbg !5553
  %55 = load ptr, ptr %54, align 8, !dbg !5553
  %56 = load ptr, ptr %15, align 8, !dbg !5554
  %57 = load ptr, ptr %19, align 8, !dbg !5555
  %58 = call noundef nonnull align 1 dereferenceable(1) ptr @_ZNSt12_Vector_baseISt10unique_ptrIN4llvm6detail11PassConceptINS1_8FunctionENS1_15AnalysisManagerIS4_JEEEJEEESt14default_deleteIS7_EESaISA_EE19_M_get_Tp_allocatorEv(ptr noundef nonnull align 8 dereferenceable(24) %21) #12, !dbg !5556
  %59 = call noundef ptr @_ZNSt6vectorISt10unique_ptrIN4llvm6detail11PassConceptINS1_8FunctionENS1_15AnalysisManagerIS4_JEEEJEEESt14default_deleteIS7_EESaISA_EE11_S_relocateEPSA_SD_SD_RSB_(ptr noundef %55, ptr noundef %56, ptr noundef %57, ptr noundef nonnull align 1 dereferenceable(1) %58) #12, !dbg !5557
  store ptr %59, ptr %19, align 8, !dbg !5558
  %60 = load ptr, ptr %14, align 8, !dbg !5559
  %61 = getelementptr inbounds %"struct.std::_Vector_base", ptr %21, i32 0, i32 0, !dbg !5560
  %62 = getelementptr inbounds %"struct.std::_Vector_base<std::unique_ptr<llvm::detail::PassConcept<llvm::Function, llvm::AnalysisManager<Function>>>, std::allocator<std::unique_ptr<llvm::detail::PassConcept<llvm::Function, llvm::AnalysisManager<Function>>>>>::_Vector_impl_data", ptr %61, i32 0, i32 2, !dbg !5561
  %63 = load ptr, ptr %62, align 8, !dbg !5561
  %64 = load ptr, ptr %14, align 8, !dbg !5562
  %65 = ptrtoint ptr %63 to i64, !dbg !5563
  %66 = ptrtoint ptr %64 to i64, !dbg !5563
  %67 = sub i64 %65, %66, !dbg !5563
  %68 = sdiv exact i64 %67, 8, !dbg !5563
  call void @_ZNSt12_Vector_baseISt10unique_ptrIN4llvm6detail11PassConceptINS1_8FunctionENS1_15AnalysisManagerIS4_JEEEJEEESt14default_deleteIS7_EESaISA_EE13_M_deallocateEPSA_m(ptr noundef nonnull align 8 dereferenceable(24) %21, ptr noundef %60, i64 noundef %68), !dbg !5564
  %69 = load ptr, ptr %18, align 8, !dbg !5565
  %70 = getelementptr inbounds %"struct.std::_Vector_base", ptr %21, i32 0, i32 0, !dbg !5566
  %71 = getelementptr inbounds %"struct.std::_Vector_base<std::unique_ptr<llvm::detail::PassConcept<llvm::Function, llvm::AnalysisManager<Function>>>, std::allocator<std::unique_ptr<llvm::detail::PassConcept<llvm::Function, llvm::AnalysisManager<Function>>>>>::_Vector_impl_data", ptr %70, i32 0, i32 0, !dbg !5567
  store ptr %69, ptr %71, align 8, !dbg !5568
  %72 = load ptr, ptr %19, align 8, !dbg !5569
  %73 = getelementptr inbounds %"struct.std::_Vector_base", ptr %21, i32 0, i32 0, !dbg !5570
  %74 = getelementptr inbounds %"struct.std::_Vector_base<std::unique_ptr<llvm::detail::PassConcept<llvm::Function, llvm::AnalysisManager<Function>>>, std::allocator<std::unique_ptr<llvm::detail::PassConcept<llvm::Function, llvm::AnalysisManager<Function>>>>>::_Vector_impl_data", ptr %73, i32 0, i32 1, !dbg !5571
  store ptr %72, ptr %74, align 8, !dbg !5572
  %75 = load ptr, ptr %18, align 8, !dbg !5573
  %76 = load i64, ptr %13, align 8, !dbg !5574
  %77 = getelementptr inbounds %"class.std::unique_ptr", ptr %75, i64 %76, !dbg !5575
  %78 = getelementptr inbounds %"struct.std::_Vector_base", ptr %21, i32 0, i32 0, !dbg !5576
  %79 = getelementptr inbounds %"struct.std::_Vector_base<std::unique_ptr<llvm::detail::PassConcept<llvm::Function, llvm::AnalysisManager<Function>>>, std::allocator<std::unique_ptr<llvm::detail::PassConcept<llvm::Function, llvm::AnalysisManager<Function>>>>>::_Vector_impl_data", ptr %78, i32 0, i32 2, !dbg !5577
  store ptr %77, ptr %79, align 8, !dbg !5578
  ret void, !dbg !5579
}

; Function Attrs: mustprogress noinline nounwind optnone uwtable
define linkonce_odr dso_local ptr @_ZNSt6vectorISt10unique_ptrIN4llvm6detail11PassConceptINS1_8FunctionENS1_15AnalysisManagerIS4_JEEEJEEESt14default_deleteIS7_EESaISA_EE3endEv(ptr noundef nonnull align 8 dereferenceable(24) %0) #0 comdat align 2 !dbg !5580 {
  %2 = alloca %"class.__gnu_cxx::__normal_iterator", align 8
  %3 = alloca ptr, align 8
  store ptr %0, ptr %3, align 8
    #dbg_declare(ptr %3, !5584, !DIExpression(), !5585)
  %4 = load ptr, ptr %3, align 8
  %5 = getelementptr inbounds %"struct.std::_Vector_base", ptr %4, i32 0, i32 0, !dbg !5586
  %6 = getelementptr inbounds %"struct.std::_Vector_base<std::unique_ptr<llvm::detail::PassConcept<llvm::Function, llvm::AnalysisManager<Function>>>, std::allocator<std::unique_ptr<llvm::detail::PassConcept<llvm::Function, llvm::AnalysisManager<Function>>>>>::_Vector_impl_data", ptr %5, i32 0, i32 1, !dbg !5587
  call void @_ZN9__gnu_cxx17__normal_iteratorIPSt10unique_ptrIN4llvm6detail11PassConceptINS2_8FunctionENS2_15AnalysisManagerIS5_JEEEJEEESt14default_deleteIS8_EESt6vectorISB_SaISB_EEEC2ERKSC_(ptr noundef nonnull align 8 dereferenceable(8) %2, ptr noundef nonnull align 8 dereferenceable(8) %6) #12, !dbg !5588
  %7 = getelementptr inbounds %"class.__gnu_cxx::__normal_iterator", ptr %2, i32 0, i32 0, !dbg !5589
  %8 = load ptr, ptr %7, align 8, !dbg !5589
  ret ptr %8, !dbg !5589
}

; Function Attrs: mustprogress noinline nounwind optnone uwtable
define linkonce_odr dso_local noundef nonnull align 8 dereferenceable(8) ptr @_ZNSt6vectorISt10unique_ptrIN4llvm6detail11PassConceptINS1_8FunctionENS1_15AnalysisManagerIS4_JEEEJEEESt14default_deleteIS7_EESaISA_EE4backEv(ptr noundef nonnull align 8 dereferenceable(24) %0) #0 comdat align 2 !dbg !5590 {
  %2 = alloca ptr, align 8
  %3 = alloca %"class.__gnu_cxx::__normal_iterator", align 8
  %4 = alloca %"class.__gnu_cxx::__normal_iterator", align 8
  store ptr %0, ptr %2, align 8
    #dbg_declare(ptr %2, !5594, !DIExpression(), !5595)
  %5 = load ptr, ptr %2, align 8
  %6 = call ptr @_ZNSt6vectorISt10unique_ptrIN4llvm6detail11PassConceptINS1_8FunctionENS1_15AnalysisManagerIS4_JEEEJEEESt14default_deleteIS7_EESaISA_EE3endEv(ptr noundef nonnull align 8 dereferenceable(24) %5) #12, !dbg !5596
  %7 = getelementptr inbounds %"class.__gnu_cxx::__normal_iterator", ptr %4, i32 0, i32 0, !dbg !5596
  store ptr %6, ptr %7, align 8, !dbg !5596
  %8 = call ptr @_ZNK9__gnu_cxx17__normal_iteratorIPSt10unique_ptrIN4llvm6detail11PassConceptINS2_8FunctionENS2_15AnalysisManagerIS5_JEEEJEEESt14default_deleteIS8_EESt6vectorISB_SaISB_EEEmiEl(ptr noundef nonnull align 8 dereferenceable(8) %4, i64 noundef 1) #12, !dbg !5597
  %9 = getelementptr inbounds %"class.__gnu_cxx::__normal_iterator", ptr %3, i32 0, i32 0, !dbg !5597
  store ptr %8, ptr %9, align 8, !dbg !5597
  %10 = call noundef nonnull align 8 dereferenceable(8) ptr @_ZNK9__gnu_cxx17__normal_iteratorIPSt10unique_ptrIN4llvm6detail11PassConceptINS2_8FunctionENS2_15AnalysisManagerIS5_JEEEJEEESt14default_deleteIS8_EESt6vectorISB_SaISB_EEEdeEv(ptr noundef nonnull align 8 dereferenceable(8) %3) #12, !dbg !5598
  ret ptr %10, !dbg !5599
}

; Function Attrs: mustprogress noinline nounwind optnone uwtable
define linkonce_odr dso_local void @_ZNSt10unique_ptrIN4llvm6detail11PassConceptINS0_8FunctionENS0_15AnalysisManagerIS3_JEEEJEEESt14default_deleteIS6_EEC2EOS9_(ptr noundef nonnull align 8 dereferenceable(8) %0, ptr noundef nonnull align 8 dereferenceable(8) %1) unnamed_addr #0 comdat align 2 !dbg !5600 {
  %3 = alloca ptr, align 8
  %4 = alloca ptr, align 8
  store ptr %0, ptr %3, align 8
    #dbg_declare(ptr %3, !5601, !DIExpression(), !5602)
  store ptr %1, ptr %4, align 8
    #dbg_declare(ptr %4, !5603, !DIExpression(), !5604)
  %5 = load ptr, ptr %3, align 8
  %6 = getelementptr inbounds %"class.std::unique_ptr", ptr %5, i32 0, i32 0, !dbg !5605
  %7 = load ptr, ptr %4, align 8, !dbg !5605
  %8 = getelementptr inbounds %"class.std::unique_ptr", ptr %7, i32 0, i32 0, !dbg !5605
  call void @_ZNSt15__uniq_ptr_dataIN4llvm6detail11PassConceptINS0_8FunctionENS0_15AnalysisManagerIS3_JEEEJEEESt14default_deleteIS6_ELb1ELb1EEC2EOS9_(ptr noundef nonnull align 8 dereferenceable(8) %6, ptr noundef nonnull align 8 dereferenceable(8) %8) #12, !dbg !5605
  ret void, !dbg !5606
}

; Function Attrs: mustprogress noinline nounwind optnone uwtable
define linkonce_odr dso_local void @_ZNSt15__uniq_ptr_dataIN4llvm6detail11PassConceptINS0_8FunctionENS0_15AnalysisManagerIS3_JEEEJEEESt14default_deleteIS6_ELb1ELb1EEC2EOS9_(ptr noundef nonnull align 8 dereferenceable(8) %0, ptr noundef nonnull align 8 dereferenceable(8) %1) unnamed_addr #0 comdat align 2 !dbg !5607 {
  %3 = alloca ptr, align 8
  %4 = alloca ptr, align 8
  store ptr %0, ptr %3, align 8
    #dbg_declare(ptr %3, !5608, !DIExpression(), !5610)
  store ptr %1, ptr %4, align 8
    #dbg_declare(ptr %4, !5611, !DIExpression(), !5612)
  %5 = load ptr, ptr %3, align 8
  %6 = load ptr, ptr %4, align 8, !dbg !5613
  call void @_ZNSt15__uniq_ptr_implIN4llvm6detail11PassConceptINS0_8FunctionENS0_15AnalysisManagerIS3_JEEEJEEESt14default_deleteIS6_EEC2EOS9_(ptr noundef nonnull align 8 dereferenceable(8) %5, ptr noundef nonnull align 8 dereferenceable(8) %6) #12, !dbg !5613
  ret void, !dbg !5614
}

; Function Attrs: mustprogress noinline nounwind optnone uwtable
define linkonce_odr dso_local void @_ZNSt15__uniq_ptr_implIN4llvm6detail11PassConceptINS0_8FunctionENS0_15AnalysisManagerIS3_JEEEJEEESt14default_deleteIS6_EEC2EOS9_(ptr noundef nonnull align 8 dereferenceable(8) %0, ptr noundef nonnull align 8 dereferenceable(8) %1) unnamed_addr #0 comdat align 2 !dbg !5615 {
  %3 = alloca ptr, align 8
  %4 = alloca ptr, align 8
  store ptr %0, ptr %3, align 8
    #dbg_declare(ptr %3, !5616, !DIExpression(), !5618)
  store ptr %1, ptr %4, align 8
    #dbg_declare(ptr %4, !5619, !DIExpression(), !5620)
  %5 = load ptr, ptr %3, align 8
  %6 = getelementptr inbounds %"class.std::__uniq_ptr_impl", ptr %5, i32 0, i32 0, !dbg !5621
  %7 = load ptr, ptr %4, align 8, !dbg !5622
  %8 = getelementptr inbounds %"class.std::__uniq_ptr_impl", ptr %7, i32 0, i32 0, !dbg !5623
  call void @_ZNSt5tupleIJPN4llvm6detail11PassConceptINS0_8FunctionENS0_15AnalysisManagerIS3_JEEEJEEESt14default_deleteIS6_EEEC2EOSA_(ptr noundef nonnull align 8 dereferenceable(8) %6, ptr noundef nonnull align 8 dereferenceable(8) %8) #12, !dbg !5621
  %9 = load ptr, ptr %4, align 8, !dbg !5624
  %10 = call noundef nonnull align 8 dereferenceable(8) ptr @_ZNSt15__uniq_ptr_implIN4llvm6detail11PassConceptINS0_8FunctionENS0_15AnalysisManagerIS3_JEEEJEEESt14default_deleteIS6_EE6_M_ptrEv(ptr noundef nonnull align 8 dereferenceable(8) %9) #12, !dbg !5626
  store ptr null, ptr %10, align 8, !dbg !5627
  ret void, !dbg !5628
}

; Function Attrs: mustprogress noinline nounwind optnone uwtable
define linkonce_odr dso_local void @_ZNSt5tupleIJPN4llvm6detail11PassConceptINS0_8FunctionENS0_15AnalysisManagerIS3_JEEEJEEESt14default_deleteIS6_EEEC2EOSA_(ptr noundef nonnull align 8 dereferenceable(8) %0, ptr noundef nonnull align 8 dereferenceable(8) %1) unnamed_addr #0 comdat align 2 !dbg !5629 {
  %3 = alloca ptr, align 8
  %4 = alloca ptr, align 8
  store ptr %0, ptr %3, align 8
    #dbg_declare(ptr %3, !5630, !DIExpression(), !5632)
  store ptr %1, ptr %4, align 8
    #dbg_declare(ptr %4, !5633, !DIExpression(), !5634)
  %5 = load ptr, ptr %3, align 8
  %6 = load ptr, ptr %4, align 8, !dbg !5635
  call void @_ZNSt11_Tuple_implILm0EJPN4llvm6detail11PassConceptINS0_8FunctionENS0_15AnalysisManagerIS3_JEEEJEEESt14default_deleteIS6_EEEC2EOSA_(ptr noundef nonnull align 8 dereferenceable(8) %5, ptr noundef nonnull align 8 dereferenceable(8) %6) #12, !dbg !5635
  ret void, !dbg !5636
}

; Function Attrs: mustprogress noinline nounwind optnone uwtable
define linkonce_odr dso_local noundef nonnull align 8 dereferenceable(8) ptr @_ZNSt15__uniq_ptr_implIN4llvm6detail11PassConceptINS0_8FunctionENS0_15AnalysisManagerIS3_JEEEJEEESt14default_deleteIS6_EE6_M_ptrEv(ptr noundef nonnull align 8 dereferenceable(8) %0) #0 comdat align 2 !dbg !5637 {
  %2 = alloca ptr, align 8
  store ptr %0, ptr %2, align 8
    #dbg_declare(ptr %2, !5638, !DIExpression(), !5639)
  %3 = load ptr, ptr %2, align 8
  %4 = getelementptr inbounds %"class.std::__uniq_ptr_impl", ptr %3, i32 0, i32 0, !dbg !5640
  %5 = call noundef nonnull align 8 dereferenceable(8) ptr @_ZSt3getILm0EJPN4llvm6detail11PassConceptINS0_8FunctionENS0_15AnalysisManagerIS3_JEEEJEEESt14default_deleteIS6_EEERNSt13tuple_elementIXT_ESt5tupleIJDpT0_EEE4typeERSE_(ptr noundef nonnull align 8 dereferenceable(8) %4) #12, !dbg !5641
  ret ptr %5, !dbg !5642
}

; Function Attrs: mustprogress noinline nounwind optnone uwtable
define linkonce_odr dso_local void @_ZNSt11_Tuple_implILm0EJPN4llvm6detail11PassConceptINS0_8FunctionENS0_15AnalysisManagerIS3_JEEEJEEESt14default_deleteIS6_EEEC2EOSA_(ptr noundef nonnull align 8 dereferenceable(8) %0, ptr noundef nonnull align 8 dereferenceable(8) %1) unnamed_addr #0 comdat align 2 !dbg !5643 {
  %3 = alloca ptr, align 8
  %4 = alloca ptr, align 8
  store ptr %0, ptr %3, align 8
    #dbg_declare(ptr %3, !5644, !DIExpression(), !5646)
  store ptr %1, ptr %4, align 8
    #dbg_declare(ptr %4, !5647, !DIExpression(), !5648)
  %5 = load ptr, ptr %3, align 8
  %6 = load ptr, ptr %4, align 8, !dbg !5649
  call void @_ZNSt11_Tuple_implILm1EJSt14default_deleteIN4llvm6detail11PassConceptINS1_8FunctionENS1_15AnalysisManagerIS4_JEEEJEEEEEEC2EOS9_(ptr noundef nonnull align 1 dereferenceable(1) %5, ptr noundef nonnull align 1 dereferenceable(1) %6) #12, !dbg !5649
  %7 = load ptr, ptr %4, align 8, !dbg !5649
  call void @llvm.memcpy.p0.p0.i64(ptr align 8 %5, ptr align 8 %7, i64 8, i1 false), !dbg !5649
  ret void, !dbg !5650
}

; Function Attrs: mustprogress noinline nounwind optnone uwtable
define linkonce_odr dso_local void @_ZNSt11_Tuple_implILm1EJSt14default_deleteIN4llvm6detail11PassConceptINS1_8FunctionENS1_15AnalysisManagerIS4_JEEEJEEEEEEC2EOS9_(ptr noundef nonnull align 1 dereferenceable(1) %0, ptr noundef nonnull align 1 dereferenceable(1) %1) unnamed_addr #0 comdat align 2 !dbg !5651 {
  %3 = alloca ptr, align 8
  %4 = alloca ptr, align 8
  store ptr %0, ptr %3, align 8
    #dbg_declare(ptr %3, !5652, !DIExpression(), !5654)
  store ptr %1, ptr %4, align 8
    #dbg_declare(ptr %4, !5655, !DIExpression(), !5656)
  %5 = load ptr, ptr %3, align 8
  %6 = load ptr, ptr %4, align 8, !dbg !5657
  ret void, !dbg !5658
}

; Function Attrs: mustprogress noinline nounwind optnone uwtable
define linkonce_odr dso_local noundef nonnull align 8 dereferenceable(8) ptr @_ZSt3getILm0EJPN4llvm6detail11PassConceptINS0_8FunctionENS0_15AnalysisManagerIS3_JEEEJEEESt14default_deleteIS6_EEERNSt13tuple_elementIXT_ESt5tupleIJDpT0_EEE4typeERSE_(ptr noundef nonnull align 8 dereferenceable(8) %0) #0 comdat !dbg !5659 {
  %2 = alloca ptr, align 8
  store ptr %0, ptr %2, align 8
    #dbg_declare(ptr %2, !5676, !DIExpression(), !5677)
  %3 = load ptr, ptr %2, align 8, !dbg !5678
  %4 = call noundef nonnull align 8 dereferenceable(8) ptr @_ZSt12__get_helperILm0EPN4llvm6detail11PassConceptINS0_8FunctionENS0_15AnalysisManagerIS3_JEEEJEEEJSt14default_deleteIS6_EEERT0_RSt11_Tuple_implIXT_EJSA_DpT1_EE(ptr noundef nonnull align 8 dereferenceable(8) %3) #12, !dbg !5679
  ret ptr %4, !dbg !5680
}

; Function Attrs: mustprogress noinline nounwind optnone uwtable
define linkonce_odr dso_local noundef nonnull align 8 dereferenceable(8) ptr @_ZSt12__get_helperILm0EPN4llvm6detail11PassConceptINS0_8FunctionENS0_15AnalysisManagerIS3_JEEEJEEEJSt14default_deleteIS6_EEERT0_RSt11_Tuple_implIXT_EJSA_DpT1_EE(ptr noundef nonnull align 8 dereferenceable(8) %0) #0 comdat !dbg !5681 {
  %2 = alloca ptr, align 8
  store ptr %0, ptr %2, align 8
    #dbg_declare(ptr %2, !5684, !DIExpression(), !5685)
  %3 = load ptr, ptr %2, align 8, !dbg !5686
  %4 = call noundef nonnull align 8 dereferenceable(8) ptr @_ZNSt11_Tuple_implILm0EJPN4llvm6detail11PassConceptINS0_8FunctionENS0_15AnalysisManagerIS3_JEEEJEEESt14default_deleteIS6_EEE7_M_headERSA_(ptr noundef nonnull align 8 dereferenceable(8) %3) #12, !dbg !5687
  ret ptr %4, !dbg !5688
}

; Function Attrs: mustprogress noinline nounwind optnone uwtable
define linkonce_odr dso_local noundef nonnull align 8 dereferenceable(8) ptr @_ZNSt11_Tuple_implILm0EJPN4llvm6detail11PassConceptINS0_8FunctionENS0_15AnalysisManagerIS3_JEEEJEEESt14default_deleteIS6_EEE7_M_headERSA_(ptr noundef nonnull align 8 dereferenceable(8) %0) #0 comdat align 2 !dbg !5689 {
  %2 = alloca ptr, align 8
  store ptr %0, ptr %2, align 8
    #dbg_declare(ptr %2, !5690, !DIExpression(), !5691)
  %3 = load ptr, ptr %2, align 8, !dbg !5692
  %4 = call noundef nonnull align 8 dereferenceable(8) ptr @_ZNSt10_Head_baseILm0EPN4llvm6detail11PassConceptINS0_8FunctionENS0_15AnalysisManagerIS3_JEEEJEEELb0EE7_M_headERS8_(ptr noundef nonnull align 8 dereferenceable(8) %3) #12, !dbg !5693
  ret ptr %4, !dbg !5694
}

; Function Attrs: mustprogress noinline nounwind optnone uwtable
define linkonce_odr dso_local noundef nonnull align 8 dereferenceable(8) ptr @_ZNSt10_Head_baseILm0EPN4llvm6detail11PassConceptINS0_8FunctionENS0_15AnalysisManagerIS3_JEEEJEEELb0EE7_M_headERS8_(ptr noundef nonnull align 8 dereferenceable(8) %0) #0 comdat align 2 !dbg !5695 {
  %2 = alloca ptr, align 8
  store ptr %0, ptr %2, align 8
    #dbg_declare(ptr %2, !5696, !DIExpression(), !5697)
  %3 = load ptr, ptr %2, align 8, !dbg !5698
  %4 = getelementptr inbounds %"struct.std::_Head_base.91", ptr %3, i32 0, i32 0, !dbg !5699
  ret ptr %4, !dbg !5700
}

; Function Attrs: mustprogress noinline nounwind optnone uwtable
define linkonce_odr dso_local noundef i64 @_ZNKSt6vectorISt10unique_ptrIN4llvm6detail11PassConceptINS1_8FunctionENS1_15AnalysisManagerIS4_JEEEJEEESt14default_deleteIS7_EESaISA_EE12_M_check_lenEmPKc(ptr noundef nonnull align 8 dereferenceable(24) %0, i64 noundef %1, ptr noundef %2) #0 comdat align 2 !dbg !5701 {
  %4 = alloca ptr, align 8
  %5 = alloca i64, align 8
  %6 = alloca ptr, align 8
  %7 = alloca i64, align 8
  %8 = alloca i64, align 8
  store ptr %0, ptr %4, align 8
    #dbg_declare(ptr %4, !5708, !DIExpression(), !5710)
  store i64 %1, ptr %5, align 8
    #dbg_declare(ptr %5, !5711, !DIExpression(), !5712)
  store ptr %2, ptr %6, align 8
    #dbg_declare(ptr %6, !5713, !DIExpression(), !5714)
  %9 = load ptr, ptr %4, align 8
  %10 = call noundef i64 @_ZNKSt6vectorISt10unique_ptrIN4llvm6detail11PassConceptINS1_8FunctionENS1_15AnalysisManagerIS4_JEEEJEEESt14default_deleteIS7_EESaISA_EE8max_sizeEv(ptr noundef nonnull align 8 dereferenceable(24) %9) #12, !dbg !5715
  %11 = call noundef i64 @_ZNKSt6vectorISt10unique_ptrIN4llvm6detail11PassConceptINS1_8FunctionENS1_15AnalysisManagerIS4_JEEEJEEESt14default_deleteIS7_EESaISA_EE4sizeEv(ptr noundef nonnull align 8 dereferenceable(24) %9) #12, !dbg !5717
  %12 = sub i64 %10, %11, !dbg !5718
  %13 = load i64, ptr %5, align 8, !dbg !5719
  %14 = icmp ult i64 %12, %13, !dbg !5720
  br i1 %14, label %15, label %17, !dbg !5721

15:                                               ; preds = %3
  %16 = load ptr, ptr %6, align 8, !dbg !5722
  call void @_ZSt20__throw_length_errorPKc(ptr noundef %16) #15, !dbg !5723
  unreachable, !dbg !5723

17:                                               ; preds = %3
    #dbg_declare(ptr %7, !5724, !DIExpression(), !5725)
  %18 = call noundef i64 @_ZNKSt6vectorISt10unique_ptrIN4llvm6detail11PassConceptINS1_8FunctionENS1_15AnalysisManagerIS4_JEEEJEEESt14default_deleteIS7_EESaISA_EE4sizeEv(ptr noundef nonnull align 8 dereferenceable(24) %9) #12, !dbg !5726
  %19 = call noundef i64 @_ZNKSt6vectorISt10unique_ptrIN4llvm6detail11PassConceptINS1_8FunctionENS1_15AnalysisManagerIS4_JEEEJEEESt14default_deleteIS7_EESaISA_EE4sizeEv(ptr noundef nonnull align 8 dereferenceable(24) %9) #12, !dbg !5727
  store i64 %19, ptr %8, align 8, !dbg !5727
  %20 = call noundef nonnull align 8 dereferenceable(8) ptr @_ZSt3maxImERKT_S2_S2_(ptr noundef nonnull align 8 dereferenceable(8) %8, ptr noundef nonnull align 8 dereferenceable(8) %5), !dbg !5728
  %21 = load i64, ptr %20, align 8, !dbg !5728
  %22 = add i64 %18, %21, !dbg !5729
  store i64 %22, ptr %7, align 8, !dbg !5725
  %23 = load i64, ptr %7, align 8, !dbg !5730
  %24 = call noundef i64 @_ZNKSt6vectorISt10unique_ptrIN4llvm6detail11PassConceptINS1_8FunctionENS1_15AnalysisManagerIS4_JEEEJEEESt14default_deleteIS7_EESaISA_EE4sizeEv(ptr noundef nonnull align 8 dereferenceable(24) %9) #12, !dbg !5731
  %25 = icmp ult i64 %23, %24, !dbg !5732
  br i1 %25, label %30, label %26, !dbg !5733

26:                                               ; preds = %17
  %27 = load i64, ptr %7, align 8, !dbg !5734
  %28 = call noundef i64 @_ZNKSt6vectorISt10unique_ptrIN4llvm6detail11PassConceptINS1_8FunctionENS1_15AnalysisManagerIS4_JEEEJEEESt14default_deleteIS7_EESaISA_EE8max_sizeEv(ptr noundef nonnull align 8 dereferenceable(24) %9) #12, !dbg !5735
  %29 = icmp ugt i64 %27, %28, !dbg !5736
  br i1 %29, label %30, label %32, !dbg !5737

30:                                               ; preds = %26, %17
  %31 = call noundef i64 @_ZNKSt6vectorISt10unique_ptrIN4llvm6detail11PassConceptINS1_8FunctionENS1_15AnalysisManagerIS4_JEEEJEEESt14default_deleteIS7_EESaISA_EE8max_sizeEv(ptr noundef nonnull align 8 dereferenceable(24) %9) #12, !dbg !5738
  br label %34, !dbg !5737

32:                                               ; preds = %26
  %33 = load i64, ptr %7, align 8, !dbg !5739
  br label %34, !dbg !5737

34:                                               ; preds = %32, %30
  %35 = phi i64 [ %31, %30 ], [ %33, %32 ], !dbg !5737
  ret i64 %35, !dbg !5740
}

; Function Attrs: mustprogress noinline nounwind optnone uwtable
define linkonce_odr dso_local noundef i64 @_ZN9__gnu_cxxmiIPSt10unique_ptrIN4llvm6detail11PassConceptINS2_8FunctionENS2_15AnalysisManagerIS5_JEEEJEEESt14default_deleteIS8_EESt6vectorISB_SaISB_EEEENS_17__normal_iteratorIT_T0_E15difference_typeERKSJ_SM_(ptr noundef nonnull align 8 dereferenceable(8) %0, ptr noundef nonnull align 8 dereferenceable(8) %1) #0 comdat !dbg !5741 {
  %3 = alloca ptr, align 8
  %4 = alloca ptr, align 8
  store ptr %0, ptr %3, align 8
    #dbg_declare(ptr %3, !5745, !DIExpression(), !5746)
  store ptr %1, ptr %4, align 8
    #dbg_declare(ptr %4, !5747, !DIExpression(), !5748)
  %5 = load ptr, ptr %3, align 8, !dbg !5749
  %6 = call noundef nonnull align 8 dereferenceable(8) ptr @_ZNK9__gnu_cxx17__normal_iteratorIPSt10unique_ptrIN4llvm6detail11PassConceptINS2_8FunctionENS2_15AnalysisManagerIS5_JEEEJEEESt14default_deleteIS8_EESt6vectorISB_SaISB_EEE4baseEv(ptr noundef nonnull align 8 dereferenceable(8) %5) #12, !dbg !5750
  %7 = load ptr, ptr %6, align 8, !dbg !5750
  %8 = load ptr, ptr %4, align 8, !dbg !5751
  %9 = call noundef nonnull align 8 dereferenceable(8) ptr @_ZNK9__gnu_cxx17__normal_iteratorIPSt10unique_ptrIN4llvm6detail11PassConceptINS2_8FunctionENS2_15AnalysisManagerIS5_JEEEJEEESt14default_deleteIS8_EESt6vectorISB_SaISB_EEE4baseEv(ptr noundef nonnull align 8 dereferenceable(8) %8) #12, !dbg !5752
  %10 = load ptr, ptr %9, align 8, !dbg !5752
  %11 = ptrtoint ptr %7 to i64, !dbg !5753
  %12 = ptrtoint ptr %10 to i64, !dbg !5753
  %13 = sub i64 %11, %12, !dbg !5753
  %14 = sdiv exact i64 %13, 8, !dbg !5753
  ret i64 %14, !dbg !5754
}

; Function Attrs: mustprogress noinline nounwind optnone uwtable
define linkonce_odr dso_local ptr @_ZNSt6vectorISt10unique_ptrIN4llvm6detail11PassConceptINS1_8FunctionENS1_15AnalysisManagerIS4_JEEEJEEESt14default_deleteIS7_EESaISA_EE5beginEv(ptr noundef nonnull align 8 dereferenceable(24) %0) #0 comdat align 2 !dbg !5755 {
  %2 = alloca %"class.__gnu_cxx::__normal_iterator", align 8
  %3 = alloca ptr, align 8
  store ptr %0, ptr %3, align 8
    #dbg_declare(ptr %3, !5757, !DIExpression(), !5758)
  %4 = load ptr, ptr %3, align 8
  %5 = getelementptr inbounds %"struct.std::_Vector_base", ptr %4, i32 0, i32 0, !dbg !5759
  %6 = getelementptr inbounds %"struct.std::_Vector_base<std::unique_ptr<llvm::detail::PassConcept<llvm::Function, llvm::AnalysisManager<Function>>>, std::allocator<std::unique_ptr<llvm::detail::PassConcept<llvm::Function, llvm::AnalysisManager<Function>>>>>::_Vector_impl_data", ptr %5, i32 0, i32 0, !dbg !5760
  call void @_ZN9__gnu_cxx17__normal_iteratorIPSt10unique_ptrIN4llvm6detail11PassConceptINS2_8FunctionENS2_15AnalysisManagerIS5_JEEEJEEESt14default_deleteIS8_EESt6vectorISB_SaISB_EEEC2ERKSC_(ptr noundef nonnull align 8 dereferenceable(8) %2, ptr noundef nonnull align 8 dereferenceable(8) %6) #12, !dbg !5761
  %7 = getelementptr inbounds %"class.__gnu_cxx::__normal_iterator", ptr %2, i32 0, i32 0, !dbg !5762
  %8 = load ptr, ptr %7, align 8, !dbg !5762
  ret ptr %8, !dbg !5762
}

; Function Attrs: mustprogress noinline nounwind optnone uwtable
define linkonce_odr dso_local noundef ptr @_ZNSt12_Vector_baseISt10unique_ptrIN4llvm6detail11PassConceptINS1_8FunctionENS1_15AnalysisManagerIS4_JEEEJEEESt14default_deleteIS7_EESaISA_EE11_M_allocateEm(ptr noundef nonnull align 8 dereferenceable(24) %0, i64 noundef %1) #0 comdat align 2 !dbg !5763 {
  %3 = alloca ptr, align 8
  %4 = alloca i64, align 8
  %5 = alloca ptr, align 8
  %6 = alloca i64, align 8
  store ptr %0, ptr %5, align 8
    #dbg_declare(ptr %5, !5768, !DIExpression(), !5770)
  store i64 %1, ptr %6, align 8
    #dbg_declare(ptr %6, !5771, !DIExpression(), !5772)
  %7 = load ptr, ptr %5, align 8
  %8 = load i64, ptr %6, align 8, !dbg !5773
  %9 = icmp ne i64 %8, 0, !dbg !5774
  br i1 %9, label %10, label %16, !dbg !5773

10:                                               ; preds = %2
  %11 = getelementptr inbounds %"struct.std::_Vector_base", ptr %7, i32 0, i32 0, !dbg !5775
  %12 = load i64, ptr %6, align 8, !dbg !5776
  store ptr %11, ptr %3, align 8
    #dbg_declare(ptr %3, !5777, !DIExpression(), !5779)
  store i64 %12, ptr %4, align 8
    #dbg_declare(ptr %4, !5781, !DIExpression(), !5782)
  %13 = load ptr, ptr %3, align 8, !dbg !5783
  %14 = load i64, ptr %4, align 8, !dbg !5784
  %15 = call noundef ptr @_ZNSt15__new_allocatorISt10unique_ptrIN4llvm6detail11PassConceptINS1_8FunctionENS1_15AnalysisManagerIS4_JEEEJEEESt14default_deleteIS7_EEE8allocateEmPKv(ptr noundef nonnull align 1 dereferenceable(1) %13, i64 noundef %14, ptr noundef null), !dbg !5785
  br label %17, !dbg !5773

16:                                               ; preds = %2
  br label %17, !dbg !5773

17:                                               ; preds = %16, %10
  %18 = phi ptr [ %15, %10 ], [ null, %16 ], !dbg !5773
  ret ptr %18, !dbg !5786
}

; Function Attrs: mustprogress noinline nounwind optnone uwtable
define linkonce_odr dso_local noundef ptr @_ZNSt6vectorISt10unique_ptrIN4llvm6detail11PassConceptINS1_8FunctionENS1_15AnalysisManagerIS4_JEEEJEEESt14default_deleteIS7_EESaISA_EE11_S_relocateEPSA_SD_SD_RSB_(ptr noundef %0, ptr noundef %1, ptr noundef %2, ptr noundef nonnull align 1 dereferenceable(1) %3) #0 comdat align 2 !dbg !5787 {
  %5 = alloca ptr, align 8
  %6 = alloca ptr, align 8
  %7 = alloca ptr, align 8
  %8 = alloca ptr, align 8
  store ptr %0, ptr %5, align 8
    #dbg_declare(ptr %5, !5799, !DIExpression(), !5800)
  store ptr %1, ptr %6, align 8
    #dbg_declare(ptr %6, !5801, !DIExpression(), !5802)
  store ptr %2, ptr %7, align 8
    #dbg_declare(ptr %7, !5803, !DIExpression(), !5804)
  store ptr %3, ptr %8, align 8
    #dbg_declare(ptr %8, !5805, !DIExpression(), !5806)
  %9 = load ptr, ptr %5, align 8, !dbg !5807
  %10 = load ptr, ptr %6, align 8, !dbg !5808
  %11 = load ptr, ptr %7, align 8, !dbg !5809
  %12 = load ptr, ptr %8, align 8, !dbg !5810
  %13 = call noundef ptr @_ZSt12__relocate_aIPSt10unique_ptrIN4llvm6detail11PassConceptINS1_8FunctionENS1_15AnalysisManagerIS4_JEEEJEEESt14default_deleteIS7_EESB_SaISA_EET0_T_SE_SD_RT1_(ptr noundef %9, ptr noundef %10, ptr noundef %11, ptr noundef nonnull align 1 dereferenceable(1) %12) #12, !dbg !5811
  ret ptr %13, !dbg !5812
}

; Function Attrs: mustprogress noinline nounwind optnone uwtable
define linkonce_odr dso_local noundef nonnull align 8 dereferenceable(8) ptr @_ZNK9__gnu_cxx17__normal_iteratorIPSt10unique_ptrIN4llvm6detail11PassConceptINS2_8FunctionENS2_15AnalysisManagerIS5_JEEEJEEESt14default_deleteIS8_EESt6vectorISB_SaISB_EEE4baseEv(ptr noundef nonnull align 8 dereferenceable(8) %0) #0 comdat align 2 !dbg !5813 {
  %2 = alloca ptr, align 8
  store ptr %0, ptr %2, align 8
    #dbg_declare(ptr %2, !5814, !DIExpression(), !5816)
  %3 = load ptr, ptr %2, align 8
  %4 = getelementptr inbounds %"class.__gnu_cxx::__normal_iterator", ptr %3, i32 0, i32 0, !dbg !5817
  ret ptr %4, !dbg !5818
}

; Function Attrs: mustprogress noinline nounwind optnone uwtable
define linkonce_odr dso_local noundef nonnull align 1 dereferenceable(1) ptr @_ZNSt12_Vector_baseISt10unique_ptrIN4llvm6detail11PassConceptINS1_8FunctionENS1_15AnalysisManagerIS4_JEEEJEEESt14default_deleteIS7_EESaISA_EE19_M_get_Tp_allocatorEv(ptr noundef nonnull align 8 dereferenceable(24) %0) #0 comdat align 2 !dbg !5819 {
  %2 = alloca ptr, align 8
  store ptr %0, ptr %2, align 8
    #dbg_declare(ptr %2, !5824, !DIExpression(), !5825)
  %3 = load ptr, ptr %2, align 8
  %4 = getelementptr inbounds %"struct.std::_Vector_base", ptr %3, i32 0, i32 0, !dbg !5826
  ret ptr %4, !dbg !5827
}

; Function Attrs: mustprogress noinline nounwind optnone uwtable
define linkonce_odr dso_local void @_ZNSt12_Vector_baseISt10unique_ptrIN4llvm6detail11PassConceptINS1_8FunctionENS1_15AnalysisManagerIS4_JEEEJEEESt14default_deleteIS7_EESaISA_EE13_M_deallocateEPSA_m(ptr noundef nonnull align 8 dereferenceable(24) %0, ptr noundef %1, i64 noundef %2) #0 comdat align 2 !dbg !5828 {
  %4 = alloca ptr, align 8
  %5 = alloca ptr, align 8
  %6 = alloca i64, align 8
  %7 = alloca ptr, align 8
  %8 = alloca ptr, align 8
  %9 = alloca i64, align 8
  store ptr %0, ptr %7, align 8
    #dbg_declare(ptr %7, !5832, !DIExpression(), !5833)
  store ptr %1, ptr %8, align 8
    #dbg_declare(ptr %8, !5834, !DIExpression(), !5835)
  store i64 %2, ptr %9, align 8
    #dbg_declare(ptr %9, !5836, !DIExpression(), !5837)
  %10 = load ptr, ptr %7, align 8
  %11 = load ptr, ptr %8, align 8, !dbg !5838
  %12 = icmp ne ptr %11, null, !dbg !5838
  br i1 %12, label %13, label %20, !dbg !5840

13:                                               ; preds = %3
  %14 = getelementptr inbounds %"struct.std::_Vector_base", ptr %10, i32 0, i32 0, !dbg !5841
  %15 = load ptr, ptr %8, align 8, !dbg !5842
  %16 = load i64, ptr %9, align 8, !dbg !5843
  store ptr %14, ptr %4, align 8
    #dbg_declare(ptr %4, !5844, !DIExpression(), !5846)
  store ptr %15, ptr %5, align 8
    #dbg_declare(ptr %5, !5848, !DIExpression(), !5849)
  store i64 %16, ptr %6, align 8
    #dbg_declare(ptr %6, !5850, !DIExpression(), !5851)
  %17 = load ptr, ptr %4, align 8, !dbg !5852
  %18 = load ptr, ptr %5, align 8, !dbg !5853
  %19 = load i64, ptr %6, align 8, !dbg !5854
  call void @_ZNSt15__new_allocatorISt10unique_ptrIN4llvm6detail11PassConceptINS1_8FunctionENS1_15AnalysisManagerIS4_JEEEJEEESt14default_deleteIS7_EEE10deallocateEPSA_m(ptr noundef nonnull align 1 dereferenceable(1) %17, ptr noundef %18, i64 noundef %19), !dbg !5855
  br label %20, !dbg !5856

20:                                               ; preds = %13, %3
  ret void, !dbg !5857
}

; Function Attrs: mustprogress noinline nounwind optnone uwtable
define linkonce_odr dso_local noundef i64 @_ZNKSt6vectorISt10unique_ptrIN4llvm6detail11PassConceptINS1_8FunctionENS1_15AnalysisManagerIS4_JEEEJEEESt14default_deleteIS7_EESaISA_EE8max_sizeEv(ptr noundef nonnull align 8 dereferenceable(24) %0) #0 comdat align 2 !dbg !5858 {
  %2 = alloca ptr, align 8
  store ptr %0, ptr %2, align 8
    #dbg_declare(ptr %2, !5862, !DIExpression(), !5863)
  %3 = load ptr, ptr %2, align 8
  %4 = call noundef nonnull align 1 dereferenceable(1) ptr @_ZNKSt12_Vector_baseISt10unique_ptrIN4llvm6detail11PassConceptINS1_8FunctionENS1_15AnalysisManagerIS4_JEEEJEEESt14default_deleteIS7_EESaISA_EE19_M_get_Tp_allocatorEv(ptr noundef nonnull align 8 dereferenceable(24) %3) #12, !dbg !5864
  %5 = call noundef i64 @_ZNSt6vectorISt10unique_ptrIN4llvm6detail11PassConceptINS1_8FunctionENS1_15AnalysisManagerIS4_JEEEJEEESt14default_deleteIS7_EESaISA_EE11_S_max_sizeERKSB_(ptr noundef nonnull align 1 dereferenceable(1) %4) #12, !dbg !5865
  ret i64 %5, !dbg !5866
}

; Function Attrs: mustprogress noinline nounwind optnone uwtable
define linkonce_odr dso_local noundef i64 @_ZNKSt6vectorISt10unique_ptrIN4llvm6detail11PassConceptINS1_8FunctionENS1_15AnalysisManagerIS4_JEEEJEEESt14default_deleteIS7_EESaISA_EE4sizeEv(ptr noundef nonnull align 8 dereferenceable(24) %0) #0 comdat align 2 !dbg !5867 {
  %2 = alloca ptr, align 8
  store ptr %0, ptr %2, align 8
    #dbg_declare(ptr %2, !5869, !DIExpression(), !5870)
  %3 = load ptr, ptr %2, align 8
  %4 = getelementptr inbounds %"struct.std::_Vector_base", ptr %3, i32 0, i32 0, !dbg !5871
  %5 = getelementptr inbounds %"struct.std::_Vector_base<std::unique_ptr<llvm::detail::PassConcept<llvm::Function, llvm::AnalysisManager<Function>>>, std::allocator<std::unique_ptr<llvm::detail::PassConcept<llvm::Function, llvm::AnalysisManager<Function>>>>>::_Vector_impl_data", ptr %4, i32 0, i32 1, !dbg !5872
  %6 = load ptr, ptr %5, align 8, !dbg !5872
  %7 = getelementptr inbounds %"struct.std::_Vector_base", ptr %3, i32 0, i32 0, !dbg !5873
  %8 = getelementptr inbounds %"struct.std::_Vector_base<std::unique_ptr<llvm::detail::PassConcept<llvm::Function, llvm::AnalysisManager<Function>>>, std::allocator<std::unique_ptr<llvm::detail::PassConcept<llvm::Function, llvm::AnalysisManager<Function>>>>>::_Vector_impl_data", ptr %7, i32 0, i32 0, !dbg !5874
  %9 = load ptr, ptr %8, align 8, !dbg !5874
  %10 = ptrtoint ptr %6 to i64, !dbg !5875
  %11 = ptrtoint ptr %9 to i64, !dbg !5875
  %12 = sub i64 %10, %11, !dbg !5875
  %13 = sdiv exact i64 %12, 8, !dbg !5875
  ret i64 %13, !dbg !5876
}

; Function Attrs: noreturn
declare void @_ZSt20__throw_length_errorPKc(ptr noundef) #8

; Function Attrs: mustprogress noinline nounwind optnone uwtable
define linkonce_odr dso_local noundef nonnull align 8 dereferenceable(8) ptr @_ZSt3maxImERKT_S2_S2_(ptr noundef nonnull align 8 dereferenceable(8) %0, ptr noundef nonnull align 8 dereferenceable(8) %1) #0 comdat !dbg !5877 {
  %3 = alloca ptr, align 8
  %4 = alloca ptr, align 8
  %5 = alloca ptr, align 8
  store ptr %0, ptr %4, align 8
    #dbg_declare(ptr %4, !5885, !DIExpression(), !5887)
  store ptr %1, ptr %5, align 8
    #dbg_declare(ptr %5, !5888, !DIExpression(), !5889)
  %6 = load ptr, ptr %4, align 8, !dbg !5890
  %7 = load i64, ptr %6, align 8, !dbg !5890
  %8 = load ptr, ptr %5, align 8, !dbg !5892
  %9 = load i64, ptr %8, align 8, !dbg !5892
  %10 = icmp ult i64 %7, %9, !dbg !5893
  br i1 %10, label %11, label %13, !dbg !5894

11:                                               ; preds = %2
  %12 = load ptr, ptr %5, align 8, !dbg !5895
  store ptr %12, ptr %3, align 8, !dbg !5896
  br label %15, !dbg !5896

13:                                               ; preds = %2
  %14 = load ptr, ptr %4, align 8, !dbg !5897
  store ptr %14, ptr %3, align 8, !dbg !5898
  br label %15, !dbg !5898

15:                                               ; preds = %13, %11
  %16 = load ptr, ptr %3, align 8, !dbg !5899
  ret ptr %16, !dbg !5899
}

; Function Attrs: mustprogress noinline nounwind optnone uwtable
define linkonce_odr dso_local noundef i64 @_ZNSt6vectorISt10unique_ptrIN4llvm6detail11PassConceptINS1_8FunctionENS1_15AnalysisManagerIS4_JEEEJEEESt14default_deleteIS7_EESaISA_EE11_S_max_sizeERKSB_(ptr noundef nonnull align 1 dereferenceable(1) %0) #0 comdat align 2 !dbg !5900 {
  %2 = alloca ptr, align 8
  %3 = alloca ptr, align 8
  %4 = alloca ptr, align 8
  %5 = alloca ptr, align 8
  %6 = alloca i64, align 8
  %7 = alloca i64, align 8
  store ptr %0, ptr %5, align 8
    #dbg_declare(ptr %5, !5906, !DIExpression(), !5907)
    #dbg_declare(ptr %6, !5908, !DIExpression(), !5909)
  store i64 1152921504606846975, ptr %6, align 8, !dbg !5909
    #dbg_declare(ptr %7, !5910, !DIExpression(), !5911)
  %8 = load ptr, ptr %5, align 8, !dbg !5912
  store ptr %8, ptr %4, align 8
    #dbg_declare(ptr %4, !5913, !DIExpression(), !5915)
  %9 = load ptr, ptr %4, align 8, !dbg !5917
  store ptr %9, ptr %3, align 8
    #dbg_declare(ptr %3, !5918, !DIExpression(), !5926)
  %10 = load ptr, ptr %3, align 8
  store ptr %10, ptr %2, align 8
    #dbg_declare(ptr %2, !5928, !DIExpression(), !5931)
  %11 = load ptr, ptr %2, align 8
  store i64 1152921504606846975, ptr %7, align 8, !dbg !5911
  %12 = call noundef nonnull align 8 dereferenceable(8) ptr @_ZSt3minImERKT_S2_S2_(ptr noundef nonnull align 8 dereferenceable(8) %6, ptr noundef nonnull align 8 dereferenceable(8) %7), !dbg !5933
  %13 = load i64, ptr %12, align 8, !dbg !5933
  ret i64 %13, !dbg !5934
}

; Function Attrs: mustprogress noinline nounwind optnone uwtable
define linkonce_odr dso_local noundef nonnull align 1 dereferenceable(1) ptr @_ZNKSt12_Vector_baseISt10unique_ptrIN4llvm6detail11PassConceptINS1_8FunctionENS1_15AnalysisManagerIS4_JEEEJEEESt14default_deleteIS7_EESaISA_EE19_M_get_Tp_allocatorEv(ptr noundef nonnull align 8 dereferenceable(24) %0) #0 comdat align 2 !dbg !5935 {
  %2 = alloca ptr, align 8
  store ptr %0, ptr %2, align 8
    #dbg_declare(ptr %2, !5943, !DIExpression(), !5945)
  %3 = load ptr, ptr %2, align 8
  %4 = getelementptr inbounds %"struct.std::_Vector_base", ptr %3, i32 0, i32 0, !dbg !5946
  ret ptr %4, !dbg !5947
}

; Function Attrs: mustprogress noinline nounwind optnone uwtable
define linkonce_odr dso_local noundef nonnull align 8 dereferenceable(8) ptr @_ZSt3minImERKT_S2_S2_(ptr noundef nonnull align 8 dereferenceable(8) %0, ptr noundef nonnull align 8 dereferenceable(8) %1) #0 comdat !dbg !5948 {
  %3 = alloca ptr, align 8
  %4 = alloca ptr, align 8
  %5 = alloca ptr, align 8
  store ptr %0, ptr %4, align 8
    #dbg_declare(ptr %4, !5949, !DIExpression(), !5950)
  store ptr %1, ptr %5, align 8
    #dbg_declare(ptr %5, !5951, !DIExpression(), !5952)
  %6 = load ptr, ptr %5, align 8, !dbg !5953
  %7 = load i64, ptr %6, align 8, !dbg !5953
  %8 = load ptr, ptr %4, align 8, !dbg !5955
  %9 = load i64, ptr %8, align 8, !dbg !5955
  %10 = icmp ult i64 %7, %9, !dbg !5956
  br i1 %10, label %11, label %13, !dbg !5957

11:                                               ; preds = %2
  %12 = load ptr, ptr %5, align 8, !dbg !5958
  store ptr %12, ptr %3, align 8, !dbg !5959
  br label %15, !dbg !5959

13:                                               ; preds = %2
  %14 = load ptr, ptr %4, align 8, !dbg !5960
  store ptr %14, ptr %3, align 8, !dbg !5961
  br label %15, !dbg !5961

15:                                               ; preds = %13, %11
  %16 = load ptr, ptr %3, align 8, !dbg !5962
  ret ptr %16, !dbg !5962
}

; Function Attrs: mustprogress noinline nounwind optnone uwtable
define linkonce_odr dso_local void @_ZN9__gnu_cxx17__normal_iteratorIPSt10unique_ptrIN4llvm6detail11PassConceptINS2_8FunctionENS2_15AnalysisManagerIS5_JEEEJEEESt14default_deleteIS8_EESt6vectorISB_SaISB_EEEC2ERKSC_(ptr noundef nonnull align 8 dereferenceable(8) %0, ptr noundef nonnull align 8 dereferenceable(8) %1) unnamed_addr #0 comdat align 2 !dbg !5963 {
  %3 = alloca ptr, align 8
  %4 = alloca ptr, align 8
  store ptr %0, ptr %3, align 8
    #dbg_declare(ptr %3, !5964, !DIExpression(), !5966)
  store ptr %1, ptr %4, align 8
    #dbg_declare(ptr %4, !5967, !DIExpression(), !5968)
  %5 = load ptr, ptr %3, align 8
  %6 = getelementptr inbounds %"class.__gnu_cxx::__normal_iterator", ptr %5, i32 0, i32 0, !dbg !5969
  %7 = load ptr, ptr %4, align 8, !dbg !5970
  %8 = load ptr, ptr %7, align 8, !dbg !5970
  store ptr %8, ptr %6, align 8, !dbg !5969
  ret void, !dbg !5971
}

; Function Attrs: mustprogress noinline nounwind optnone uwtable
define linkonce_odr dso_local noundef ptr @_ZNSt15__new_allocatorISt10unique_ptrIN4llvm6detail11PassConceptINS1_8FunctionENS1_15AnalysisManagerIS4_JEEEJEEESt14default_deleteIS7_EEE8allocateEmPKv(ptr noundef nonnull align 1 dereferenceable(1) %0, i64 noundef %1, ptr noundef %2) #0 comdat align 2 !dbg !5972 {
  %4 = alloca ptr, align 8
  %5 = alloca ptr, align 8
  %6 = alloca i64, align 8
  %7 = alloca ptr, align 8
  store ptr %0, ptr %5, align 8
    #dbg_declare(ptr %5, !5976, !DIExpression(), !5977)
  store i64 %1, ptr %6, align 8
    #dbg_declare(ptr %6, !5978, !DIExpression(), !5979)
  store ptr %2, ptr %7, align 8
    #dbg_declare(ptr %7, !5980, !DIExpression(), !5981)
  %8 = load ptr, ptr %5, align 8
  %9 = load i64, ptr %6, align 8, !dbg !5982
  store ptr %8, ptr %4, align 8
    #dbg_declare(ptr %4, !5928, !DIExpression(), !5984)
  %10 = load ptr, ptr %4, align 8
  %11 = icmp ugt i64 %9, 1152921504606846975, !dbg !5986
  br i1 %11, label %12, label %17, !dbg !5987

12:                                               ; preds = %3
  %13 = load i64, ptr %6, align 8, !dbg !5988
  %14 = icmp ugt i64 %13, 2305843009213693951, !dbg !5991
  br i1 %14, label %15, label %16, !dbg !5992

15:                                               ; preds = %12
  call void @_ZSt28__throw_bad_array_new_lengthv() #15, !dbg !5993
  unreachable, !dbg !5993

16:                                               ; preds = %12
  call void @_ZSt17__throw_bad_allocv() #15, !dbg !5994
  unreachable, !dbg !5994

17:                                               ; preds = %3
  %18 = load i64, ptr %6, align 8, !dbg !5995
  %19 = mul i64 %18, 8, !dbg !5996
  %20 = call noalias noundef nonnull ptr @_Znwm(i64 noundef %19) #14, !dbg !5997
  ret ptr %20, !dbg !5998
}

; Function Attrs: noreturn
declare void @_ZSt28__throw_bad_array_new_lengthv() #8

; Function Attrs: noreturn
declare void @_ZSt17__throw_bad_allocv() #8

; Function Attrs: mustprogress noinline nounwind optnone uwtable
define linkonce_odr dso_local noundef ptr @_ZSt12__relocate_aIPSt10unique_ptrIN4llvm6detail11PassConceptINS1_8FunctionENS1_15AnalysisManagerIS4_JEEEJEEESt14default_deleteIS7_EESB_SaISA_EET0_T_SE_SD_RT1_(ptr noundef %0, ptr noundef %1, ptr noundef %2, ptr noundef nonnull align 1 dereferenceable(1) %3) #0 comdat !dbg !5999 {
  %5 = alloca ptr, align 8
  %6 = alloca ptr, align 8
  %7 = alloca ptr, align 8
  %8 = alloca ptr, align 8
  store ptr %0, ptr %5, align 8
    #dbg_declare(ptr %5, !6006, !DIExpression(), !6007)
  store ptr %1, ptr %6, align 8
    #dbg_declare(ptr %6, !6008, !DIExpression(), !6009)
  store ptr %2, ptr %7, align 8
    #dbg_declare(ptr %7, !6010, !DIExpression(), !6011)
  store ptr %3, ptr %8, align 8
    #dbg_declare(ptr %8, !6012, !DIExpression(), !6013)
  %9 = load ptr, ptr %5, align 8, !dbg !6014
  %10 = call noundef ptr @_ZSt12__niter_baseIPSt10unique_ptrIN4llvm6detail11PassConceptINS1_8FunctionENS1_15AnalysisManagerIS4_JEEEJEEESt14default_deleteIS7_EEET_SC_(ptr noundef %9) #12, !dbg !6015
  %11 = load ptr, ptr %6, align 8, !dbg !6016
  %12 = call noundef ptr @_ZSt12__niter_baseIPSt10unique_ptrIN4llvm6detail11PassConceptINS1_8FunctionENS1_15AnalysisManagerIS4_JEEEJEEESt14default_deleteIS7_EEET_SC_(ptr noundef %11) #12, !dbg !6017
  %13 = load ptr, ptr %7, align 8, !dbg !6018
  %14 = call noundef ptr @_ZSt12__niter_baseIPSt10unique_ptrIN4llvm6detail11PassConceptINS1_8FunctionENS1_15AnalysisManagerIS4_JEEEJEEESt14default_deleteIS7_EEET_SC_(ptr noundef %13) #12, !dbg !6019
  %15 = load ptr, ptr %8, align 8, !dbg !6020
  %16 = call noundef ptr @_ZSt14__relocate_a_1IPSt10unique_ptrIN4llvm6detail11PassConceptINS1_8FunctionENS1_15AnalysisManagerIS4_JEEEJEEESt14default_deleteIS7_EESB_SaISA_EET0_T_SE_SD_RT1_(ptr noundef %10, ptr noundef %12, ptr noundef %14, ptr noundef nonnull align 1 dereferenceable(1) %15) #12, !dbg !6021
  ret ptr %16, !dbg !6022
}

; Function Attrs: mustprogress noinline nounwind optnone uwtable
define linkonce_odr dso_local noundef ptr @_ZSt14__relocate_a_1IPSt10unique_ptrIN4llvm6detail11PassConceptINS1_8FunctionENS1_15AnalysisManagerIS4_JEEEJEEESt14default_deleteIS7_EESB_SaISA_EET0_T_SE_SD_RT1_(ptr noundef %0, ptr noundef %1, ptr noundef %2, ptr noundef nonnull align 1 dereferenceable(1) %3) #0 comdat !dbg !6023 {
  %5 = alloca ptr, align 8
  %6 = alloca ptr, align 8
  %7 = alloca ptr, align 8
  %8 = alloca ptr, align 8
  %9 = alloca ptr, align 8
  store ptr %0, ptr %5, align 8
    #dbg_declare(ptr %5, !6024, !DIExpression(), !6025)
  store ptr %1, ptr %6, align 8
    #dbg_declare(ptr %6, !6026, !DIExpression(), !6027)
  store ptr %2, ptr %7, align 8
    #dbg_declare(ptr %7, !6028, !DIExpression(), !6029)
  store ptr %3, ptr %8, align 8
    #dbg_declare(ptr %8, !6030, !DIExpression(), !6031)
    #dbg_declare(ptr %9, !6032, !DIExpression(), !6033)
  %10 = load ptr, ptr %7, align 8, !dbg !6034
  store ptr %10, ptr %9, align 8, !dbg !6033
  br label %11, !dbg !6035

11:                                               ; preds = %19, %4
  %12 = load ptr, ptr %5, align 8, !dbg !6036
  %13 = load ptr, ptr %6, align 8, !dbg !6039
  %14 = icmp ne ptr %12, %13, !dbg !6040
  br i1 %14, label %15, label %24, !dbg !6041

15:                                               ; preds = %11
  %16 = load ptr, ptr %9, align 8, !dbg !6042
  %17 = load ptr, ptr %5, align 8, !dbg !6043
  %18 = load ptr, ptr %8, align 8, !dbg !6044
  call void @_ZSt19__relocate_object_aISt10unique_ptrIN4llvm6detail11PassConceptINS1_8FunctionENS1_15AnalysisManagerIS4_JEEEJEEESt14default_deleteIS7_EESA_SaISA_EEvPT_PT0_RT1_(ptr noundef %16, ptr noundef %17, ptr noundef nonnull align 1 dereferenceable(1) %18) #12, !dbg !6045
  br label %19, !dbg !6045

19:                                               ; preds = %15
  %20 = load ptr, ptr %5, align 8, !dbg !6046
  %21 = getelementptr inbounds %"class.std::unique_ptr", ptr %20, i32 1, !dbg !6046
  store ptr %21, ptr %5, align 8, !dbg !6046
  %22 = load ptr, ptr %9, align 8, !dbg !6047
  %23 = getelementptr inbounds %"class.std::unique_ptr", ptr %22, i32 1, !dbg !6047
  store ptr %23, ptr %9, align 8, !dbg !6047
  br label %11, !dbg !6048, !llvm.loop !6049

24:                                               ; preds = %11
  %25 = load ptr, ptr %9, align 8, !dbg !6051
  ret ptr %25, !dbg !6052
}

; Function Attrs: mustprogress noinline nounwind optnone uwtable
define linkonce_odr dso_local noundef ptr @_ZSt12__niter_baseIPSt10unique_ptrIN4llvm6detail11PassConceptINS1_8FunctionENS1_15AnalysisManagerIS4_JEEEJEEESt14default_deleteIS7_EEET_SC_(ptr noundef %0) #0 comdat !dbg !6053 {
  %2 = alloca ptr, align 8
  store ptr %0, ptr %2, align 8
    #dbg_declare(ptr %2, !6056, !DIExpression(), !6057)
  %3 = load ptr, ptr %2, align 8, !dbg !6058
  ret ptr %3, !dbg !6059
}

; Function Attrs: mustprogress noinline nounwind optnone uwtable
define linkonce_odr dso_local void @_ZSt19__relocate_object_aISt10unique_ptrIN4llvm6detail11PassConceptINS1_8FunctionENS1_15AnalysisManagerIS4_JEEEJEEESt14default_deleteIS7_EESA_SaISA_EEvPT_PT0_RT1_(ptr noalias noundef %0, ptr noalias noundef %1, ptr noundef nonnull align 1 dereferenceable(1) %2) #0 comdat !dbg !6060 {
  %4 = alloca ptr, align 8
  %5 = alloca ptr, align 8
  %6 = alloca ptr, align 8
  %7 = alloca ptr, align 8
  %8 = alloca ptr, align 8
  %9 = alloca ptr, align 8
  %10 = alloca ptr, align 8
  %11 = alloca ptr, align 8
  %12 = alloca ptr, align 8
  %13 = alloca ptr, align 8
  %14 = alloca ptr, align 8
  %15 = alloca ptr, align 8
  %16 = alloca ptr, align 8
  store ptr %0, ptr %14, align 8
    #dbg_declare(ptr %14, !6065, !DIExpression(), !6066)
  store ptr %1, ptr %15, align 8
    #dbg_declare(ptr %15, !6067, !DIExpression(), !6068)
  store ptr %2, ptr %16, align 8
    #dbg_declare(ptr %16, !6069, !DIExpression(), !6070)
  %17 = load ptr, ptr %16, align 8, !dbg !6071
  %18 = load ptr, ptr %14, align 8, !dbg !6072
  %19 = load ptr, ptr %15, align 8, !dbg !6073
  store ptr %17, ptr %11, align 8
    #dbg_declare(ptr %11, !5443, !DIExpression(), !6074)
  store ptr %18, ptr %12, align 8
    #dbg_declare(ptr %12, !5452, !DIExpression(), !6076)
  store ptr %19, ptr %13, align 8
    #dbg_declare(ptr %13, !5454, !DIExpression(), !6077)
  %20 = load ptr, ptr %11, align 8, !dbg !6078
  %21 = load ptr, ptr %12, align 8, !dbg !6079
  %22 = load ptr, ptr %13, align 8, !dbg !6080
  store ptr %20, ptr %8, align 8
    #dbg_declare(ptr %8, !5459, !DIExpression(), !6081)
  store ptr %21, ptr %9, align 8
    #dbg_declare(ptr %9, !5469, !DIExpression(), !6083)
  store ptr %22, ptr %10, align 8
    #dbg_declare(ptr %10, !5471, !DIExpression(), !6084)
  %23 = load ptr, ptr %8, align 8
  %24 = load ptr, ptr %9, align 8, !dbg !6085
  %25 = load ptr, ptr %10, align 8, !dbg !6086
  call void @_ZNSt10unique_ptrIN4llvm6detail11PassConceptINS0_8FunctionENS0_15AnalysisManagerIS3_JEEEJEEESt14default_deleteIS6_EEC2EOS9_(ptr noundef nonnull align 8 dereferenceable(8) %24, ptr noundef nonnull align 8 dereferenceable(8) %25) #12, !dbg !6087
  %26 = load ptr, ptr %16, align 8, !dbg !6088
  %27 = load ptr, ptr %15, align 8, !dbg !6089
  store ptr %26, ptr %6, align 8
    #dbg_declare(ptr %6, !6090, !DIExpression(), !6096)
  store ptr %27, ptr %7, align 8
    #dbg_declare(ptr %7, !6098, !DIExpression(), !6099)
  %28 = load ptr, ptr %6, align 8, !dbg !6100
  %29 = load ptr, ptr %7, align 8, !dbg !6101
  store ptr %28, ptr %4, align 8
    #dbg_declare(ptr %4, !6102, !DIExpression(), !6107)
  store ptr %29, ptr %5, align 8
    #dbg_declare(ptr %5, !6109, !DIExpression(), !6110)
  %30 = load ptr, ptr %4, align 8
  %31 = load ptr, ptr %5, align 8, !dbg !6111
  call void @_ZNSt10unique_ptrIN4llvm6detail11PassConceptINS0_8FunctionENS0_15AnalysisManagerIS3_JEEEJEEESt14default_deleteIS6_EED2Ev(ptr noundef nonnull align 8 dereferenceable(8) %31) #12, !dbg !6112
  ret void, !dbg !6113
}

; Function Attrs: mustprogress noinline nounwind optnone uwtable
define linkonce_odr dso_local void @_ZNSt15__new_allocatorISt10unique_ptrIN4llvm6detail11PassConceptINS1_8FunctionENS1_15AnalysisManagerIS4_JEEEJEEESt14default_deleteIS7_EEE10deallocateEPSA_m(ptr noundef nonnull align 1 dereferenceable(1) %0, ptr noundef %1, i64 noundef %2) #0 comdat align 2 !dbg !6114 {
  %4 = alloca ptr, align 8
  %5 = alloca ptr, align 8
  %6 = alloca i64, align 8
  store ptr %0, ptr %4, align 8
    #dbg_declare(ptr %4, !6118, !DIExpression(), !6119)
  store ptr %1, ptr %5, align 8
    #dbg_declare(ptr %5, !6120, !DIExpression(), !6121)
  store i64 %2, ptr %6, align 8
    #dbg_declare(ptr %6, !6122, !DIExpression(), !6123)
  %7 = load ptr, ptr %4, align 8
  %8 = load ptr, ptr %5, align 8, !dbg !6124
  %9 = load i64, ptr %6, align 8, !dbg !6124
  %10 = mul i64 %9, 8, !dbg !6124
  call void @_ZdlPvm(ptr noundef %8, i64 noundef %10) #16, !dbg !6125
  ret void, !dbg !6126
}

; Function Attrs: nobuiltin nounwind
declare void @_ZdlPvm(ptr noundef, i64 noundef) #9

; Function Attrs: mustprogress noinline nounwind optnone uwtable
define linkonce_odr dso_local ptr @_ZNK9__gnu_cxx17__normal_iteratorIPSt10unique_ptrIN4llvm6detail11PassConceptINS2_8FunctionENS2_15AnalysisManagerIS5_JEEEJEEESt14default_deleteIS8_EESt6vectorISB_SaISB_EEEmiEl(ptr noundef nonnull align 8 dereferenceable(8) %0, i64 noundef %1) #0 comdat align 2 !dbg !6127 {
  %3 = alloca %"class.__gnu_cxx::__normal_iterator", align 8
  %4 = alloca ptr, align 8
  %5 = alloca i64, align 8
  %6 = alloca ptr, align 8
  store ptr %0, ptr %4, align 8
    #dbg_declare(ptr %4, !6128, !DIExpression(), !6129)
  store i64 %1, ptr %5, align 8
    #dbg_declare(ptr %5, !6130, !DIExpression(), !6131)
  %7 = load ptr, ptr %4, align 8
  %8 = getelementptr inbounds %"class.__gnu_cxx::__normal_iterator", ptr %7, i32 0, i32 0, !dbg !6132
  %9 = load ptr, ptr %8, align 8, !dbg !6132
  %10 = load i64, ptr %5, align 8, !dbg !6133
  %11 = sub i64 0, %10, !dbg !6134
  %12 = getelementptr inbounds %"class.std::unique_ptr", ptr %9, i64 %11, !dbg !6134
  store ptr %12, ptr %6, align 8, !dbg !6132
  call void @_ZN9__gnu_cxx17__normal_iteratorIPSt10unique_ptrIN4llvm6detail11PassConceptINS2_8FunctionENS2_15AnalysisManagerIS5_JEEEJEEESt14default_deleteIS8_EESt6vectorISB_SaISB_EEEC2ERKSC_(ptr noundef nonnull align 8 dereferenceable(8) %3, ptr noundef nonnull align 8 dereferenceable(8) %6) #12, !dbg !6135
  %13 = getelementptr inbounds %"class.__gnu_cxx::__normal_iterator", ptr %3, i32 0, i32 0, !dbg !6136
  %14 = load ptr, ptr %13, align 8, !dbg !6136
  ret ptr %14, !dbg !6136
}

; Function Attrs: mustprogress noinline nounwind optnone uwtable
define linkonce_odr dso_local noundef nonnull align 8 dereferenceable(8) ptr @_ZNK9__gnu_cxx17__normal_iteratorIPSt10unique_ptrIN4llvm6detail11PassConceptINS2_8FunctionENS2_15AnalysisManagerIS5_JEEEJEEESt14default_deleteIS8_EESt6vectorISB_SaISB_EEEdeEv(ptr noundef nonnull align 8 dereferenceable(8) %0) #0 comdat align 2 !dbg !6137 {
  %2 = alloca ptr, align 8
  store ptr %0, ptr %2, align 8
    #dbg_declare(ptr %2, !6138, !DIExpression(), !6139)
  %3 = load ptr, ptr %2, align 8
  %4 = getelementptr inbounds %"class.__gnu_cxx::__normal_iterator", ptr %3, i32 0, i32 0, !dbg !6140
  %5 = load ptr, ptr %4, align 8, !dbg !6140
  ret ptr %5, !dbg !6141
}

; Function Attrs: mustprogress noinline nounwind optnone uwtable
define linkonce_odr dso_local void @_ZN4llvm6detail11PassConceptINS_8FunctionENS_15AnalysisManagerIS2_JEEEJEEC2Ev(ptr noundef nonnull align 8 dereferenceable(8) %0) unnamed_addr #0 comdat align 2 !dbg !6142 {
  %2 = alloca ptr, align 8
  store ptr %0, ptr %2, align 8
    #dbg_declare(ptr %2, !6144, !DIExpression(), !6145)
  %3 = load ptr, ptr %2, align 8
  store ptr getelementptr inbounds inrange(-16, 48) ({ [8 x ptr] }, ptr @_ZTVN4llvm6detail11PassConceptINS_8FunctionENS_15AnalysisManagerIS2_JEEEJEEE, i32 0, i32 0, i32 2), ptr %3, align 8, !dbg !6146
  ret void, !dbg !6146
}

; Function Attrs: mustprogress noinline nounwind optnone uwtable
define linkonce_odr dso_local void @_ZN4llvm6detail9PassModelINS_8FunctionENS_16LoopSimplifyPassENS_15AnalysisManagerIS2_JEEEJEED2Ev(ptr noundef nonnull align 8 dereferenceable(9) %0) unnamed_addr #0 comdat align 2 !dbg !6147 {
  %2 = alloca ptr, align 8
  store ptr %0, ptr %2, align 8
    #dbg_declare(ptr %2, !6151, !DIExpression(), !6152)
  %3 = load ptr, ptr %2, align 8
  call void @_ZN4llvm6detail11PassConceptINS_8FunctionENS_15AnalysisManagerIS2_JEEEJEED2Ev(ptr noundef nonnull align 8 dereferenceable(8) %3) #12, !dbg !6153
  ret void, !dbg !6155
}

; Function Attrs: mustprogress noinline nounwind optnone uwtable
define linkonce_odr dso_local void @_ZN4llvm6detail9PassModelINS_8FunctionENS_16LoopSimplifyPassENS_15AnalysisManagerIS2_JEEEJEED0Ev(ptr noundef nonnull align 8 dereferenceable(9) %0) unnamed_addr #0 comdat align 2 !dbg !6156 {
  %2 = alloca ptr, align 8
  store ptr %0, ptr %2, align 8
    #dbg_declare(ptr %2, !6157, !DIExpression(), !6158)
  %3 = load ptr, ptr %2, align 8
  call void @_ZN4llvm6detail9PassModelINS_8FunctionENS_16LoopSimplifyPassENS_15AnalysisManagerIS2_JEEEJEED2Ev(ptr noundef nonnull align 8 dereferenceable(9) %3) #12, !dbg !6159
  call void @_ZdlPvm(ptr noundef %3, i64 noundef 16) #16, !dbg !6159
  ret void, !dbg !6159
}

; Function Attrs: mustprogress noinline nounwind optnone uwtable
define linkonce_odr dso_local void @_ZN4llvm6detail9PassModelINS_8FunctionENS_16LoopSimplifyPassENS_15AnalysisManagerIS2_JEEEJEE3runERS2_RS5_(ptr dead_on_unwind noalias writable sret(%"class.llvm::PreservedAnalyses") align 8 %0, ptr noundef nonnull align 8 dereferenceable(9) %1, ptr noundef nonnull align 8 dereferenceable(128) %2, ptr noundef nonnull align 8 dereferenceable(72) %3) unnamed_addr #0 comdat align 2 !dbg !6160 {
  %5 = alloca ptr, align 8
  %6 = alloca ptr, align 8
  %7 = alloca ptr, align 8
  %8 = alloca ptr, align 8
  store ptr %0, ptr %5, align 8
  store ptr %1, ptr %6, align 8
    #dbg_declare(ptr %6, !6161, !DIExpression(), !6162)
  store ptr %2, ptr %7, align 8
    #dbg_declare(ptr %7, !6163, !DIExpression(), !6164)
  store ptr %3, ptr %8, align 8
    #dbg_declare(ptr %8, !6165, !DIExpression(), !6166)
  %9 = load ptr, ptr %6, align 8
  %10 = getelementptr inbounds i8, ptr %9, i64 8, !dbg !6167
  %11 = load ptr, ptr %7, align 8, !dbg !6168
  %12 = load ptr, ptr %8, align 8, !dbg !6169
  call void @_ZN4llvm16LoopSimplifyPass3runERNS_8FunctionERNS_15AnalysisManagerIS1_JEEE(ptr dead_on_unwind writable sret(%"class.llvm::PreservedAnalyses") align 8 %0, ptr noundef nonnull align 1 dereferenceable(1) %10, ptr noundef nonnull align 8 dereferenceable(128) %11, ptr noundef nonnull align 8 dereferenceable(72) %12), !dbg !6170
  ret void, !dbg !6171
}

; Function Attrs: mustprogress noinline nounwind optnone uwtable
define linkonce_odr dso_local void @_ZN4llvm6detail9PassModelINS_8FunctionENS_16LoopSimplifyPassENS_15AnalysisManagerIS2_JEEEJEE13printPipelineERNS_11raw_ostreamENS_12function_refIFNS_9StringRefESA_EEE(ptr noundef nonnull align 8 dereferenceable(9) %0, ptr noundef nonnull align 8 dereferenceable(48) %1, ptr %2, i64 %3) unnamed_addr #0 comdat align 2 !dbg !6172 {
  %5 = alloca %"class.llvm::function_ref", align 8
  %6 = alloca ptr, align 8
  %7 = alloca ptr, align 8
  %8 = alloca %"class.llvm::function_ref", align 8
  %9 = getelementptr inbounds { ptr, i64 }, ptr %5, i32 0, i32 0
  store ptr %2, ptr %9, align 8
  %10 = getelementptr inbounds { ptr, i64 }, ptr %5, i32 0, i32 1
  store i64 %3, ptr %10, align 8
  store ptr %0, ptr %6, align 8
    #dbg_declare(ptr %6, !6173, !DIExpression(), !6174)
  store ptr %1, ptr %7, align 8
    #dbg_declare(ptr %7, !6175, !DIExpression(), !6176)
    #dbg_declare(ptr %5, !6177, !DIExpression(), !6178)
  %11 = load ptr, ptr %6, align 8
  %12 = getelementptr inbounds i8, ptr %11, i64 8, !dbg !6179
  %13 = load ptr, ptr %7, align 8, !dbg !6180
  call void @llvm.memcpy.p0.p0.i64(ptr align 8 %8, ptr align 8 %5, i64 16, i1 false), !dbg !6181
  %14 = getelementptr inbounds { ptr, i64 }, ptr %8, i32 0, i32 0, !dbg !6182
  %15 = load ptr, ptr %14, align 8, !dbg !6182
  %16 = getelementptr inbounds { ptr, i64 }, ptr %8, i32 0, i32 1, !dbg !6182
  %17 = load i64, ptr %16, align 8, !dbg !6182
  call void @_ZN4llvm13PassInfoMixinINS_16LoopSimplifyPassEE13printPipelineERNS_11raw_ostreamENS_12function_refIFNS_9StringRefES6_EEE(ptr noundef nonnull align 1 dereferenceable(1) %12, ptr noundef nonnull align 8 dereferenceable(48) %13, ptr %15, i64 %17), !dbg !6182
  ret void, !dbg !6183
}

; Function Attrs: mustprogress noinline nounwind optnone uwtable
define linkonce_odr dso_local { ptr, i64 } @_ZNK4llvm6detail9PassModelINS_8FunctionENS_16LoopSimplifyPassENS_15AnalysisManagerIS2_JEEEJEE4nameEv(ptr noundef nonnull align 8 dereferenceable(9) %0) unnamed_addr #0 comdat align 2 !dbg !6184 {
  %2 = alloca %"class.llvm::StringRef", align 8
  %3 = alloca ptr, align 8
  store ptr %0, ptr %3, align 8
    #dbg_declare(ptr %3, !6185, !DIExpression(), !6187)
  %4 = load ptr, ptr %3, align 8
  %5 = call { ptr, i64 } @_ZN4llvm13PassInfoMixinINS_16LoopSimplifyPassEE4nameEv(), !dbg !6188
  %6 = getelementptr inbounds { ptr, i64 }, ptr %2, i32 0, i32 0, !dbg !6188
  %7 = extractvalue { ptr, i64 } %5, 0, !dbg !6188
  store ptr %7, ptr %6, align 8, !dbg !6188
  %8 = getelementptr inbounds { ptr, i64 }, ptr %2, i32 0, i32 1, !dbg !6188
  %9 = extractvalue { ptr, i64 } %5, 1, !dbg !6188
  store i64 %9, ptr %8, align 8, !dbg !6188
  %10 = load { ptr, i64 }, ptr %2, align 8, !dbg !6189
  ret { ptr, i64 } %10, !dbg !6189
}

; Function Attrs: mustprogress noinline nounwind optnone uwtable
define linkonce_odr dso_local noundef zeroext i1 @_ZNK4llvm6detail9PassModelINS_8FunctionENS_16LoopSimplifyPassENS_15AnalysisManagerIS2_JEEEJEE10isRequiredEv(ptr noundef nonnull align 8 dereferenceable(9) %0) unnamed_addr #0 comdat align 2 !dbg !6190 {
  %2 = alloca ptr, align 8
  store ptr %0, ptr %2, align 8
    #dbg_declare(ptr %2, !6191, !DIExpression(), !6192)
  %3 = load ptr, ptr %2, align 8
  %4 = call noundef zeroext i1 @_ZN4llvm6detail9PassModelINS_8FunctionENS_16LoopSimplifyPassENS_15AnalysisManagerIS2_JEEEJEE18passIsRequiredImplIS3_EENSt9enable_ifIXntsr11is_detectedINS6_14has_required_tET_EE5valueEbE4typeEv(), !dbg !6193
  ret i1 %4, !dbg !6194
}

; Function Attrs: mustprogress noinline nounwind optnone uwtable
define linkonce_odr dso_local void @_ZN4llvm6detail11PassConceptINS_8FunctionENS_15AnalysisManagerIS2_JEEEJEED2Ev(ptr noundef nonnull align 8 dereferenceable(8) %0) unnamed_addr #0 comdat align 2 !dbg !6195 {
  %2 = alloca ptr, align 8
  store ptr %0, ptr %2, align 8
    #dbg_declare(ptr %2, !6196, !DIExpression(), !6197)
  %3 = load ptr, ptr %2, align 8
  ret void, !dbg !6198
}

; Function Attrs: mustprogress noinline nounwind optnone uwtable
define linkonce_odr dso_local void @_ZN4llvm6detail11PassConceptINS_8FunctionENS_15AnalysisManagerIS2_JEEEJEED0Ev(ptr noundef nonnull align 8 dereferenceable(8) %0) unnamed_addr #0 comdat align 2 !dbg !6199 {
  %2 = alloca ptr, align 8
  store ptr %0, ptr %2, align 8
    #dbg_declare(ptr %2, !6200, !DIExpression(), !6201)
  %3 = load ptr, ptr %2, align 8
  call void @llvm.trap() #17, !dbg !6202
  unreachable, !dbg !6202
}

declare void @__cxa_pure_virtual() unnamed_addr

; Function Attrs: cold noreturn nounwind memory(inaccessiblemem: write)
declare void @llvm.trap() #10

declare void @_ZN4llvm16LoopSimplifyPass3runERNS_8FunctionERNS_15AnalysisManagerIS1_JEEE(ptr dead_on_unwind writable sret(%"class.llvm::PreservedAnalyses") align 8, ptr noundef nonnull align 1 dereferenceable(1), ptr noundef nonnull align 8 dereferenceable(128), ptr noundef nonnull align 8 dereferenceable(72)) #1

; Function Attrs: mustprogress noinline nounwind optnone uwtable
define linkonce_odr dso_local void @_ZN4llvm13PassInfoMixinINS_16LoopSimplifyPassEE13printPipelineERNS_11raw_ostreamENS_12function_refIFNS_9StringRefES6_EEE(ptr noundef nonnull align 1 dereferenceable(1) %0, ptr noundef nonnull align 8 dereferenceable(48) %1, ptr %2, i64 %3) #0 comdat align 2 !dbg !6203 {
  %5 = alloca %"class.llvm::function_ref", align 8
  %6 = alloca ptr, align 8
  %7 = alloca ptr, align 8
  %8 = alloca %"class.llvm::StringRef", align 8
  %9 = alloca %"class.llvm::StringRef", align 8
  %10 = alloca %"class.llvm::StringRef", align 8
  %11 = alloca %"class.llvm::StringRef", align 8
  %12 = getelementptr inbounds { ptr, i64 }, ptr %5, i32 0, i32 0
  store ptr %2, ptr %12, align 8
  %13 = getelementptr inbounds { ptr, i64 }, ptr %5, i32 0, i32 1
  store i64 %3, ptr %13, align 8
  store ptr %0, ptr %6, align 8
    #dbg_declare(ptr %6, !6204, !DIExpression(), !6206)
  store ptr %1, ptr %7, align 8
    #dbg_declare(ptr %7, !6207, !DIExpression(), !6208)
    #dbg_declare(ptr %5, !6209, !DIExpression(), !6210)
  %14 = load ptr, ptr %6, align 8
    #dbg_declare(ptr %8, !6211, !DIExpression(), !6212)
  %15 = call { ptr, i64 } @_ZN4llvm13PassInfoMixinINS_16LoopSimplifyPassEE4nameEv(), !dbg !6213
  %16 = getelementptr inbounds { ptr, i64 }, ptr %8, i32 0, i32 0, !dbg !6213
  %17 = extractvalue { ptr, i64 } %15, 0, !dbg !6213
  store ptr %17, ptr %16, align 8, !dbg !6213
  %18 = getelementptr inbounds { ptr, i64 }, ptr %8, i32 0, i32 1, !dbg !6213
  %19 = extractvalue { ptr, i64 } %15, 1, !dbg !6213
  store i64 %19, ptr %18, align 8, !dbg !6213
    #dbg_declare(ptr %9, !6214, !DIExpression(), !6215)
  call void @llvm.memcpy.p0.p0.i64(ptr align 8 %10, ptr align 8 %8, i64 16, i1 false), !dbg !6216
  %20 = getelementptr inbounds { ptr, i64 }, ptr %10, i32 0, i32 0, !dbg !6217
  %21 = load ptr, ptr %20, align 8, !dbg !6217
  %22 = getelementptr inbounds { ptr, i64 }, ptr %10, i32 0, i32 1, !dbg !6217
  %23 = load i64, ptr %22, align 8, !dbg !6217
  %24 = call { ptr, i64 } @_ZNK4llvm12function_refIFNS_9StringRefES1_EEclES1_(ptr noundef nonnull align 8 dereferenceable(16) %5, ptr %21, i64 %23), !dbg !6217
  %25 = getelementptr inbounds { ptr, i64 }, ptr %9, i32 0, i32 0, !dbg !6217
  %26 = extractvalue { ptr, i64 } %24, 0, !dbg !6217
  store ptr %26, ptr %25, align 8, !dbg !6217
  %27 = getelementptr inbounds { ptr, i64 }, ptr %9, i32 0, i32 1, !dbg !6217
  %28 = extractvalue { ptr, i64 } %24, 1, !dbg !6217
  store i64 %28, ptr %27, align 8, !dbg !6217
  %29 = load ptr, ptr %7, align 8, !dbg !6218
  call void @llvm.memcpy.p0.p0.i64(ptr align 8 %11, ptr align 8 %9, i64 16, i1 false), !dbg !6219
  %30 = getelementptr inbounds { ptr, i64 }, ptr %11, i32 0, i32 0, !dbg !6220
  %31 = load ptr, ptr %30, align 8, !dbg !6220
  %32 = getelementptr inbounds { ptr, i64 }, ptr %11, i32 0, i32 1, !dbg !6220
  %33 = load i64, ptr %32, align 8, !dbg !6220
  %34 = call noundef nonnull align 8 dereferenceable(48) ptr @_ZN4llvm11raw_ostreamlsENS_9StringRefE(ptr noundef nonnull align 8 dereferenceable(48) %29, ptr %31, i64 %33), !dbg !6220
  ret void, !dbg !6221
}

; Function Attrs: mustprogress noinline nounwind optnone uwtable
define linkonce_odr dso_local { ptr, i64 } @_ZN4llvm13PassInfoMixinINS_16LoopSimplifyPassEE4nameEv() #0 comdat align 2 !dbg !6222 {
  %1 = alloca %"class.llvm::StringRef", align 8
  %2 = alloca %"class.llvm::StringRef", align 8
    #dbg_declare(ptr %1, !6223, !DIExpression(), !6224)
  %3 = call { ptr, i64 } @_ZN4llvm11getTypeNameINS_16LoopSimplifyPassEEENS_9StringRefEv(), !dbg !6225
  %4 = getelementptr inbounds { ptr, i64 }, ptr %1, i32 0, i32 0, !dbg !6225
  %5 = extractvalue { ptr, i64 } %3, 0, !dbg !6225
  store ptr %5, ptr %4, align 8, !dbg !6225
  %6 = getelementptr inbounds { ptr, i64 }, ptr %1, i32 0, i32 1, !dbg !6225
  %7 = extractvalue { ptr, i64 } %3, 1, !dbg !6225
  store i64 %7, ptr %6, align 8, !dbg !6225
  call void @_ZN4llvm9StringRefC2EPKc(ptr noundef nonnull align 8 dereferenceable(16) %2, ptr noundef @.str.4), !dbg !6226
  %8 = getelementptr inbounds { ptr, i64 }, ptr %2, i32 0, i32 0, !dbg !6227
  %9 = load ptr, ptr %8, align 8, !dbg !6227
  %10 = getelementptr inbounds { ptr, i64 }, ptr %2, i32 0, i32 1, !dbg !6227
  %11 = load i64, ptr %10, align 8, !dbg !6227
  %12 = call noundef zeroext i1 @_ZN4llvm9StringRef13consume_frontES0_(ptr noundef nonnull align 8 dereferenceable(16) %1, ptr %9, i64 %11), !dbg !6227
  %13 = load { ptr, i64 }, ptr %1, align 8, !dbg !6228
  ret { ptr, i64 } %13, !dbg !6228
}

; Function Attrs: mustprogress noinline nounwind optnone uwtable
define linkonce_odr dso_local { ptr, i64 } @_ZNK4llvm12function_refIFNS_9StringRefES1_EEclES1_(ptr noundef nonnull align 8 dereferenceable(16) %0, ptr %1, i64 %2) #0 comdat align 2 !dbg !6229 {
  %4 = alloca %"class.llvm::StringRef", align 8
  %5 = alloca %"class.llvm::StringRef", align 8
  %6 = alloca ptr, align 8
  %7 = alloca %"class.llvm::StringRef", align 8
  %8 = getelementptr inbounds { ptr, i64 }, ptr %5, i32 0, i32 0
  store ptr %1, ptr %8, align 8
  %9 = getelementptr inbounds { ptr, i64 }, ptr %5, i32 0, i32 1
  store i64 %2, ptr %9, align 8
  store ptr %0, ptr %6, align 8
    #dbg_declare(ptr %6, !6235, !DIExpression(), !6237)
    #dbg_declare(ptr %5, !6238, !DIExpression(), !6239)
  %10 = load ptr, ptr %6, align 8
  %11 = getelementptr inbounds %"class.llvm::function_ref", ptr %10, i32 0, i32 0, !dbg !6240
  %12 = load ptr, ptr %11, align 8, !dbg !6240
  %13 = getelementptr inbounds %"class.llvm::function_ref", ptr %10, i32 0, i32 1, !dbg !6241
  %14 = load i64, ptr %13, align 8, !dbg !6241
  call void @llvm.memcpy.p0.p0.i64(ptr align 8 %7, ptr align 8 %5, i64 16, i1 false), !dbg !6242
  %15 = getelementptr inbounds { ptr, i64 }, ptr %7, i32 0, i32 0, !dbg !6240
  %16 = load ptr, ptr %15, align 8, !dbg !6240
  %17 = getelementptr inbounds { ptr, i64 }, ptr %7, i32 0, i32 1, !dbg !6240
  %18 = load i64, ptr %17, align 8, !dbg !6240
  %19 = call { ptr, i64 } %12(i64 noundef %14, ptr %16, i64 %18), !dbg !6240
  %20 = getelementptr inbounds { ptr, i64 }, ptr %4, i32 0, i32 0, !dbg !6240
  %21 = extractvalue { ptr, i64 } %19, 0, !dbg !6240
  store ptr %21, ptr %20, align 8, !dbg !6240
  %22 = getelementptr inbounds { ptr, i64 }, ptr %4, i32 0, i32 1, !dbg !6240
  %23 = extractvalue { ptr, i64 } %19, 1, !dbg !6240
  store i64 %23, ptr %22, align 8, !dbg !6240
  %24 = load { ptr, i64 }, ptr %4, align 8, !dbg !6243
  ret { ptr, i64 } %24, !dbg !6243
}

; Function Attrs: mustprogress noinline nounwind optnone uwtable
define linkonce_odr dso_local noundef nonnull align 8 dereferenceable(48) ptr @_ZN4llvm11raw_ostreamlsENS_9StringRefE(ptr noundef nonnull align 8 dereferenceable(48) %0, ptr %1, i64 %2) #0 comdat align 2 !dbg !6244 {
  %4 = alloca ptr, align 8
  %5 = alloca %"class.llvm::StringRef", align 8
  %6 = alloca ptr, align 8
  %7 = alloca i64, align 8
  %8 = getelementptr inbounds { ptr, i64 }, ptr %5, i32 0, i32 0
  store ptr %1, ptr %8, align 8
  %9 = getelementptr inbounds { ptr, i64 }, ptr %5, i32 0, i32 1
  store i64 %2, ptr %9, align 8
  store ptr %0, ptr %6, align 8
    #dbg_declare(ptr %6, !6249, !DIExpression(), !6251)
    #dbg_declare(ptr %5, !6252, !DIExpression(), !6253)
  %10 = load ptr, ptr %6, align 8
    #dbg_declare(ptr %7, !6254, !DIExpression(), !6255)
  %11 = call noundef i64 @_ZNK4llvm9StringRef4sizeEv(ptr noundef nonnull align 8 dereferenceable(16) %5), !dbg !6256
  store i64 %11, ptr %7, align 8, !dbg !6255
  %12 = load i64, ptr %7, align 8, !dbg !6257
  %13 = getelementptr inbounds %"class.llvm::raw_ostream", ptr %10, i32 0, i32 3, !dbg !6259
  %14 = load ptr, ptr %13, align 8, !dbg !6259
  %15 = getelementptr inbounds %"class.llvm::raw_ostream", ptr %10, i32 0, i32 4, !dbg !6260
  %16 = load ptr, ptr %15, align 8, !dbg !6260
  %17 = ptrtoint ptr %14 to i64, !dbg !6261
  %18 = ptrtoint ptr %16 to i64, !dbg !6261
  %19 = sub i64 %17, %18, !dbg !6261
  %20 = icmp ugt i64 %12, %19, !dbg !6262
  br i1 %20, label %21, label %25, !dbg !6263

21:                                               ; preds = %3
  %22 = call noundef ptr @_ZNK4llvm9StringRef4dataEv(ptr noundef nonnull align 8 dereferenceable(16) %5), !dbg !6264
  %23 = load i64, ptr %7, align 8, !dbg !6265
  %24 = call noundef nonnull align 8 dereferenceable(48) ptr @_ZN4llvm11raw_ostream5writeEPKcm(ptr noundef nonnull align 8 dereferenceable(48) %10, ptr noundef %22, i64 noundef %23), !dbg !6266
  store ptr %24, ptr %4, align 8, !dbg !6267
  br label %38, !dbg !6267

25:                                               ; preds = %3
  %26 = load i64, ptr %7, align 8, !dbg !6268
  %27 = icmp ne i64 %26, 0, !dbg !6268
  br i1 %27, label %28, label %37, !dbg !6270

28:                                               ; preds = %25
  %29 = getelementptr inbounds %"class.llvm::raw_ostream", ptr %10, i32 0, i32 4, !dbg !6271
  %30 = load ptr, ptr %29, align 8, !dbg !6271
  %31 = call noundef ptr @_ZNK4llvm9StringRef4dataEv(ptr noundef nonnull align 8 dereferenceable(16) %5), !dbg !6273
  %32 = load i64, ptr %7, align 8, !dbg !6274
  call void @llvm.memcpy.p0.p0.i64(ptr align 1 %30, ptr align 1 %31, i64 %32, i1 false), !dbg !6275
  %33 = load i64, ptr %7, align 8, !dbg !6276
  %34 = getelementptr inbounds %"class.llvm::raw_ostream", ptr %10, i32 0, i32 4, !dbg !6277
  %35 = load ptr, ptr %34, align 8, !dbg !6278
  %36 = getelementptr inbounds i8, ptr %35, i64 %33, !dbg !6278
  store ptr %36, ptr %34, align 8, !dbg !6278
  br label %37, !dbg !6279

37:                                               ; preds = %28, %25
  store ptr %10, ptr %4, align 8, !dbg !6280
  br label %38, !dbg !6280

38:                                               ; preds = %37, %21
  %39 = load ptr, ptr %4, align 8, !dbg !6281
  ret ptr %39, !dbg !6281
}

; Function Attrs: mustprogress noinline nounwind optnone uwtable
define linkonce_odr dso_local { ptr, i64 } @_ZN4llvm11getTypeNameINS_16LoopSimplifyPassEEENS_9StringRefEv() #0 comdat !dbg !6282 {
  %1 = alloca %"class.llvm::StringRef", align 8
  %2 = alloca %"class.llvm::StringRef", align 8
  %3 = alloca %"class.llvm::StringRef", align 8
  %4 = alloca %"class.llvm::StringRef", align 8
  %5 = alloca %"class.llvm::StringRef", align 8
  %6 = alloca %"class.llvm::StringRef", align 8
  %7 = alloca %"class.llvm::StringRef", align 8
    #dbg_declare(ptr %2, !6285, !DIExpression(), !6286)
  call void @_ZN4llvm9StringRefC2EPKc(ptr noundef nonnull align 8 dereferenceable(16) %2, ptr noundef @__PRETTY_FUNCTION__._ZN4llvm11getTypeNameINS_16LoopSimplifyPassEEENS_9StringRefEv), !dbg !6287
    #dbg_declare(ptr %3, !6288, !DIExpression(), !6289)
  call void @_ZN4llvm9StringRefC2EPKc(ptr noundef nonnull align 8 dereferenceable(16) %3, ptr noundef @.str.5), !dbg !6290
  call void @llvm.memcpy.p0.p0.i64(ptr align 8 %5, ptr align 8 %3, i64 16, i1 false), !dbg !6291
  %8 = getelementptr inbounds { ptr, i64 }, ptr %5, i32 0, i32 0, !dbg !6292
  %9 = load ptr, ptr %8, align 8, !dbg !6292
  %10 = getelementptr inbounds { ptr, i64 }, ptr %5, i32 0, i32 1, !dbg !6292
  %11 = load i64, ptr %10, align 8, !dbg !6292
  %12 = call noundef i64 @_ZNK4llvm9StringRef4findES0_m(ptr noundef nonnull align 8 dereferenceable(16) %2, ptr %9, i64 %11, i64 noundef 0), !dbg !6292
  %13 = call { ptr, i64 } @_ZNK4llvm9StringRef6substrEmm(ptr noundef nonnull align 8 dereferenceable(16) %2, i64 noundef %12, i64 noundef -1), !dbg !6293
  %14 = getelementptr inbounds { ptr, i64 }, ptr %4, i32 0, i32 0, !dbg !6293
  %15 = extractvalue { ptr, i64 } %13, 0, !dbg !6293
  store ptr %15, ptr %14, align 8, !dbg !6293
  %16 = getelementptr inbounds { ptr, i64 }, ptr %4, i32 0, i32 1, !dbg !6293
  %17 = extractvalue { ptr, i64 } %13, 1, !dbg !6293
  store i64 %17, ptr %16, align 8, !dbg !6293
  call void @llvm.memcpy.p0.p0.i64(ptr align 8 %2, ptr align 8 %4, i64 16, i1 false), !dbg !6294
  %18 = call noundef zeroext i1 @_ZNK4llvm9StringRef5emptyEv(ptr noundef nonnull align 8 dereferenceable(16) %2), !dbg !6295
  br i1 %18, label %20, label %19, !dbg !6295

19:                                               ; preds = %0
  br label %20

20:                                               ; preds = %19, %0
  %21 = phi i1 [ false, %0 ], [ true, %19 ], !dbg !6296
  br i1 %21, label %22, label %23, !dbg !6295

22:                                               ; preds = %20
  br label %25, !dbg !6295

23:                                               ; preds = %20
  call void @__assert_fail(ptr noundef @.str.7, ptr noundef @.str.8, i32 noundef 33, ptr noundef @__PRETTY_FUNCTION__._ZN4llvm11getTypeNameINS_16LoopSimplifyPassEEENS_9StringRefEv) #17, !dbg !6295
  unreachable, !dbg !6295

24:                                               ; No predecessors!
  br label %25, !dbg !6295

25:                                               ; preds = %24, %22
  %26 = call noundef i64 @_ZNK4llvm9StringRef4sizeEv(ptr noundef nonnull align 8 dereferenceable(16) %3), !dbg !6297
  %27 = call { ptr, i64 } @_ZNK4llvm9StringRef10drop_frontEm(ptr noundef nonnull align 8 dereferenceable(16) %2, i64 noundef %26), !dbg !6298
  %28 = getelementptr inbounds { ptr, i64 }, ptr %6, i32 0, i32 0, !dbg !6298
  %29 = extractvalue { ptr, i64 } %27, 0, !dbg !6298
  store ptr %29, ptr %28, align 8, !dbg !6298
  %30 = getelementptr inbounds { ptr, i64 }, ptr %6, i32 0, i32 1, !dbg !6298
  %31 = extractvalue { ptr, i64 } %27, 1, !dbg !6298
  store i64 %31, ptr %30, align 8, !dbg !6298
  call void @llvm.memcpy.p0.p0.i64(ptr align 8 %2, ptr align 8 %6, i64 16, i1 false), !dbg !6299
  call void @_ZN4llvm9StringRefC2EPKc(ptr noundef nonnull align 8 dereferenceable(16) %7, ptr noundef @.str.9), !dbg !6300
  %32 = getelementptr inbounds { ptr, i64 }, ptr %7, i32 0, i32 0, !dbg !6300
  %33 = load ptr, ptr %32, align 8, !dbg !6300
  %34 = getelementptr inbounds { ptr, i64 }, ptr %7, i32 0, i32 1, !dbg !6300
  %35 = load i64, ptr %34, align 8, !dbg !6300
  %36 = call noundef zeroext i1 @_ZNK4llvm9StringRef9ends_withES0_(ptr noundef nonnull align 8 dereferenceable(16) %2, ptr %33, i64 %35), !dbg !6300
  br i1 %36, label %37, label %38, !dbg !6300

37:                                               ; preds = %25
  br label %38

38:                                               ; preds = %37, %25
  %39 = phi i1 [ false, %25 ], [ true, %37 ], !dbg !6296
  br i1 %39, label %40, label %41, !dbg !6300

40:                                               ; preds = %38
  br label %43, !dbg !6300

41:                                               ; preds = %38
